
ATmega32_Drivers.elf:     file format elf32-avr

Sections:
Idx Name          Size      VMA       LMA       File off  Algn
  0 .text         000002dc  00000000  00000000  00000074  2**1
                  CONTENTS, ALLOC, LOAD, READONLY, CODE
  1 .data         00000018  00800060  000002dc  00000350  2**0
                  CONTENTS, ALLOC, LOAD, DATA

Disassembly of section .text:

00000000 <__vectors>:
   0:	0c 94 2a 00 	jmp	0x54	; 0x54 <__ctors_end>
   4:	0c 94 3f 00 	jmp	0x7e	; 0x7e <__bad_interrupt>
   8:	0c 94 3f 00 	jmp	0x7e	; 0x7e <__bad_interrupt>
   c:	0c 94 3f 00 	jmp	0x7e	; 0x7e <__bad_interrupt>
  10:	0c 94 3f 00 	jmp	0x7e	; 0x7e <__bad_interrupt>
  14:	0c 94 3f 00 	jmp	0x7e	; 0x7e <__bad_interrupt>
  18:	0c 94 3f 00 	jmp	0x7e	; 0x7e <__bad_interrupt>
  1c:	0c 94 3f 00 	jmp	0x7e	; 0x7e <__bad_interrupt>
  20:	0c 94 3f 00 	jmp	0x7e	; 0x7e <__bad_interrupt>
  24:	0c 94 3f 00 	jmp	0x7e	; 0x7e <__bad_interrupt>
  28:	0c 94 3f 00 	jmp	0x7e	; 0x7e <__bad_interrupt>
  2c:	0c 94 3f 00 	jmp	0x7e	; 0x7e <__bad_interrupt>
  30:	0c 94 3f 00 	jmp	0x7e	; 0x7e <__bad_interrupt>
  34:	0c 94 3f 00 	jmp	0x7e	; 0x7e <__bad_interrupt>
  38:	0c 94 3f 00 	jmp	0x7e	; 0x7e <__bad_interrupt>
  3c:	0c 94 3f 00 	jmp	0x7e	; 0x7e <__bad_interrupt>
  40:	0c 94 3f 00 	jmp	0x7e	; 0x7e <__bad_interrupt>
  44:	0c 94 3f 00 	jmp	0x7e	; 0x7e <__bad_interrupt>
  48:	0c 94 3f 00 	jmp	0x7e	; 0x7e <__bad_interrupt>
  4c:	0c 94 3f 00 	jmp	0x7e	; 0x7e <__bad_interrupt>
  50:	0c 94 3f 00 	jmp	0x7e	; 0x7e <__bad_interrupt>

00000054 <__ctors_end>:
  54:	11 24       	eor	r1, r1
  56:	1f be       	out	0x3f, r1	; 63
  58:	cf e5       	ldi	r28, 0x5F	; 95
  5a:	d8 e0       	ldi	r29, 0x08	; 8
  5c:	de bf       	out	0x3e, r29	; 62
  5e:	cd bf       	out	0x3d, r28	; 61

00000060 <__do_copy_data>:
  60:	10 e0       	ldi	r17, 0x00	; 0
  62:	a0 e6       	ldi	r26, 0x60	; 96
  64:	b0 e0       	ldi	r27, 0x00	; 0
  66:	ec ed       	ldi	r30, 0xDC	; 220
  68:	f2 e0       	ldi	r31, 0x02	; 2
  6a:	02 c0       	rjmp	.+4      	; 0x70 <.do_copy_data_start>

0000006c <.do_copy_data_loop>:
  6c:	05 90       	lpm	r0, Z+
  6e:	0d 92       	st	X+, r0

00000070 <.do_copy_data_start>:
  70:	a8 37       	cpi	r26, 0x78	; 120
  72:	b1 07       	cpc	r27, r17
  74:	d9 f7       	brne	.-10     	; 0x6c <.do_copy_data_loop>
  76:	0e 94 6b 01 	call	0x2d6	; 0x2d6 <main>
  7a:	0c 94 6c 01 	jmp	0x2d8	; 0x2d8 <_exit>

0000007e <__bad_interrupt>:
  7e:	0c 94 00 00 	jmp	0	; 0x0 <__vectors>

00000082 <DIO_voidSetPinDirection>:
  82:	84 30       	cpi	r24, 0x04	; 4
  84:	08 f0       	brcs	.+2      	; 0x88 <DIO_voidSetPinDirection+0x6>
  86:	3e c0       	rjmp	.+124    	; 0x104 <DIO_voidSetPinDirection+0x82>
  88:	68 30       	cpi	r22, 0x08	; 8
  8a:	e0 f5       	brcc	.+120    	; 0x104 <DIO_voidSetPinDirection+0x82>
  8c:	81 30       	cpi	r24, 0x01	; 1
  8e:	79 f0       	breq	.+30     	; 0xae <DIO_voidSetPinDirection+0x2c>
  90:	81 30       	cpi	r24, 0x01	; 1
  92:	28 f0       	brcs	.+10     	; 0x9e <DIO_voidSetPinDirection+0x1c>
  94:	82 30       	cpi	r24, 0x02	; 2
  96:	41 f1       	breq	.+80     	; 0xe8 <DIO_voidSetPinDirection+0x66>
  98:	83 30       	cpi	r24, 0x03	; 3
  9a:	a1 f5       	brne	.+104    	; 0x104 <DIO_voidSetPinDirection+0x82>
  9c:	10 c0       	rjmp	.+32     	; 0xbe <DIO_voidSetPinDirection+0x3c>
  9e:	e0 b3       	in	r30, 0x10	; 16
  a0:	f0 e0       	ldi	r31, 0x00	; 0
  a2:	e1 a1       	ldd	r30, Z+33	; 0x21
  a4:	f0 e0       	ldi	r31, 0x00	; 0
  a6:	e1 a1       	ldd	r30, Z+33	; 0x21
  a8:	f0 e0       	ldi	r31, 0x00	; 0
  aa:	e1 a1       	ldd	r30, Z+33	; 0x21
  ac:	01 c0       	rjmp	.+2      	; 0xb0 <DIO_voidSetPinDirection+0x2e>
  ae:	e0 b3       	in	r30, 0x10	; 16
  b0:	f0 e0       	ldi	r31, 0x00	; 0
  b2:	e1 a1       	ldd	r30, Z+33	; 0x21
  b4:	f0 e0       	ldi	r31, 0x00	; 0
  b6:	e1 a1       	ldd	r30, Z+33	; 0x21
  b8:	f0 e0       	ldi	r31, 0x00	; 0
  ba:	e1 a1       	ldd	r30, Z+33	; 0x21
  bc:	01 c0       	rjmp	.+2      	; 0xc0 <DIO_voidSetPinDirection+0x3e>
  be:	e0 b3       	in	r30, 0x10	; 16
  c0:	f0 e0       	ldi	r31, 0x00	; 0
  c2:	e1 a1       	ldd	r30, Z+33	; 0x21
  c4:	f0 e0       	ldi	r31, 0x00	; 0
  c6:	e1 a1       	ldd	r30, Z+33	; 0x21
  c8:	f0 e0       	ldi	r31, 0x00	; 0
  ca:	e1 a1       	ldd	r30, Z+33	; 0x21
  cc:	f0 e0       	ldi	r31, 0x00	; 0
  ce:	e1 a1       	ldd	r30, Z+33	; 0x21
  d0:	f0 e0       	ldi	r31, 0x00	; 0
  d2:	21 a1       	ldd	r18, Z+33	; 0x21
  d4:	84 2f       	mov	r24, r20
  d6:	90 e0       	ldi	r25, 0x00	; 0
  d8:	02 c0       	rjmp	.+4      	; 0xde <DIO_voidSetPinDirection+0x5c>
  da:	88 0f       	add	r24, r24
  dc:	99 1f       	adc	r25, r25
  de:	6a 95       	dec	r22
  e0:	e2 f7       	brpl	.-8      	; 0xda <DIO_voidSetPinDirection+0x58>
  e2:	28 2b       	or	r18, r24
  e4:	21 a3       	std	Z+33, r18	; 0x21
  e6:	08 95       	ret
  e8:	e0 b3       	in	r30, 0x10	; 16
  ea:	f0 e0       	ldi	r31, 0x00	; 0
  ec:	e1 a1       	ldd	r30, Z+33	; 0x21
  ee:	f0 e0       	ldi	r31, 0x00	; 0
  f0:	21 a1       	ldd	r18, Z+33	; 0x21
  f2:	84 2f       	mov	r24, r20
  f4:	90 e0       	ldi	r25, 0x00	; 0
  f6:	02 c0       	rjmp	.+4      	; 0xfc <DIO_voidSetPinDirection+0x7a>
  f8:	88 0f       	add	r24, r24
  fa:	99 1f       	adc	r25, r25
  fc:	6a 95       	dec	r22
  fe:	e2 f7       	brpl	.-8      	; 0xf8 <DIO_voidSetPinDirection+0x76>
 100:	28 2b       	or	r18, r24
 102:	21 a3       	std	Z+33, r18	; 0x21
 104:	08 95       	ret

00000106 <DIO_voidSetPinValue>:
 106:	84 30       	cpi	r24, 0x04	; 4
 108:	d0 f5       	brcc	.+116    	; 0x17e <DIO_voidSetPinValue+0x78>
 10a:	68 30       	cpi	r22, 0x08	; 8
 10c:	c0 f5       	brcc	.+112    	; 0x17e <DIO_voidSetPinValue+0x78>
 10e:	81 30       	cpi	r24, 0x01	; 1
 110:	79 f0       	breq	.+30     	; 0x130 <DIO_voidSetPinValue+0x2a>
 112:	81 30       	cpi	r24, 0x01	; 1
 114:	28 f0       	brcs	.+10     	; 0x120 <DIO_voidSetPinValue+0x1a>
 116:	82 30       	cpi	r24, 0x02	; 2
 118:	31 f1       	breq	.+76     	; 0x166 <DIO_voidSetPinValue+0x60>
 11a:	83 30       	cpi	r24, 0x03	; 3
 11c:	81 f5       	brne	.+96     	; 0x17e <DIO_voidSetPinValue+0x78>
 11e:	10 c0       	rjmp	.+32     	; 0x140 <DIO_voidSetPinValue+0x3a>
 120:	e0 b3       	in	r30, 0x10	; 16
 122:	f0 e0       	ldi	r31, 0x00	; 0
 124:	e1 a1       	ldd	r30, Z+33	; 0x21
 126:	f0 e0       	ldi	r31, 0x00	; 0
 128:	e1 a1       	ldd	r30, Z+33	; 0x21
 12a:	f0 e0       	ldi	r31, 0x00	; 0
 12c:	e1 a1       	ldd	r30, Z+33	; 0x21
 12e:	01 c0       	rjmp	.+2      	; 0x132 <DIO_voidSetPinValue+0x2c>
 130:	e0 b3       	in	r30, 0x10	; 16
 132:	f0 e0       	ldi	r31, 0x00	; 0
 134:	e1 a1       	ldd	r30, Z+33	; 0x21
 136:	f0 e0       	ldi	r31, 0x00	; 0
 138:	e1 a1       	ldd	r30, Z+33	; 0x21
 13a:	f0 e0       	ldi	r31, 0x00	; 0
 13c:	e1 a1       	ldd	r30, Z+33	; 0x21
 13e:	01 c0       	rjmp	.+2      	; 0x142 <DIO_voidSetPinValue+0x3c>
 140:	e0 b3       	in	r30, 0x10	; 16
 142:	f0 e0       	ldi	r31, 0x00	; 0
 144:	e1 a1       	ldd	r30, Z+33	; 0x21
 146:	f0 e0       	ldi	r31, 0x00	; 0
 148:	e1 a1       	ldd	r30, Z+33	; 0x21
 14a:	f0 e0       	ldi	r31, 0x00	; 0
 14c:	e1 a1       	ldd	r30, Z+33	; 0x21
 14e:	f0 e0       	ldi	r31, 0x00	; 0
 150:	21 a1       	ldd	r18, Z+33	; 0x21
 152:	84 2f       	mov	r24, r20
 154:	90 e0       	ldi	r25, 0x00	; 0
 156:	02 c0       	rjmp	.+4      	; 0x15c <DIO_voidSetPinValue+0x56>
 158:	88 0f       	add	r24, r24
 15a:	99 1f       	adc	r25, r25
 15c:	6a 95       	dec	r22
 15e:	e2 f7       	brpl	.-8      	; 0x158 <DIO_voidSetPinValue+0x52>
 160:	28 2b       	or	r18, r24
 162:	21 a3       	std	Z+33, r18	; 0x21
 164:	08 95       	ret
 166:	e0 b3       	in	r30, 0x10	; 16
 168:	f0 e0       	ldi	r31, 0x00	; 0
 16a:	21 a1       	ldd	r18, Z+33	; 0x21
 16c:	84 2f       	mov	r24, r20
 16e:	90 e0       	ldi	r25, 0x00	; 0
 170:	02 c0       	rjmp	.+4      	; 0x176 <DIO_voidSetPinValue+0x70>
 172:	88 0f       	add	r24, r24
 174:	99 1f       	adc	r25, r25
 176:	6a 95       	dec	r22
 178:	e2 f7       	brpl	.-8      	; 0x172 <DIO_voidSetPinValue+0x6c>
 17a:	28 2b       	or	r18, r24
 17c:	21 a3       	std	Z+33, r18	; 0x21
 17e:	08 95       	ret

00000180 <DIO_voidSetRegisterDirection>:
 180:	84 30       	cpi	r24, 0x04	; 4
 182:	50 f5       	brcc	.+84     	; 0x1d8 <DIO_voidSetRegisterDirection+0x58>
 184:	81 30       	cpi	r24, 0x01	; 1
 186:	79 f0       	breq	.+30     	; 0x1a6 <DIO_voidSetRegisterDirection+0x26>
 188:	81 30       	cpi	r24, 0x01	; 1
 18a:	28 f0       	brcs	.+10     	; 0x196 <DIO_voidSetRegisterDirection+0x16>
 18c:	82 30       	cpi	r24, 0x02	; 2
 18e:	f9 f0       	breq	.+62     	; 0x1ce <DIO_voidSetRegisterDirection+0x4e>
 190:	83 30       	cpi	r24, 0x03	; 3
 192:	11 f5       	brne	.+68     	; 0x1d8 <DIO_voidSetRegisterDirection+0x58>
 194:	10 c0       	rjmp	.+32     	; 0x1b6 <DIO_voidSetRegisterDirection+0x36>
 196:	e0 b3       	in	r30, 0x10	; 16
 198:	f0 e0       	ldi	r31, 0x00	; 0
 19a:	e1 a1       	ldd	r30, Z+33	; 0x21
 19c:	f0 e0       	ldi	r31, 0x00	; 0
 19e:	e1 a1       	ldd	r30, Z+33	; 0x21
 1a0:	f0 e0       	ldi	r31, 0x00	; 0
 1a2:	e1 a1       	ldd	r30, Z+33	; 0x21
 1a4:	01 c0       	rjmp	.+2      	; 0x1a8 <DIO_voidSetRegisterDirection+0x28>
 1a6:	e0 b3       	in	r30, 0x10	; 16
 1a8:	f0 e0       	ldi	r31, 0x00	; 0
 1aa:	e1 a1       	ldd	r30, Z+33	; 0x21
 1ac:	f0 e0       	ldi	r31, 0x00	; 0
 1ae:	e1 a1       	ldd	r30, Z+33	; 0x21
 1b0:	f0 e0       	ldi	r31, 0x00	; 0
 1b2:	e1 a1       	ldd	r30, Z+33	; 0x21
 1b4:	01 c0       	rjmp	.+2      	; 0x1b8 <DIO_voidSetRegisterDirection+0x38>
 1b6:	e0 b3       	in	r30, 0x10	; 16
 1b8:	f0 e0       	ldi	r31, 0x00	; 0
 1ba:	e1 a1       	ldd	r30, Z+33	; 0x21
 1bc:	f0 e0       	ldi	r31, 0x00	; 0
 1be:	e1 a1       	ldd	r30, Z+33	; 0x21
 1c0:	f0 e0       	ldi	r31, 0x00	; 0
 1c2:	e1 a1       	ldd	r30, Z+33	; 0x21
 1c4:	f0 e0       	ldi	r31, 0x00	; 0
 1c6:	e1 a1       	ldd	r30, Z+33	; 0x21
 1c8:	f0 e0       	ldi	r31, 0x00	; 0
 1ca:	61 a3       	std	Z+33, r22	; 0x21
 1cc:	08 95       	ret
 1ce:	e0 b3       	in	r30, 0x10	; 16
 1d0:	f0 e0       	ldi	r31, 0x00	; 0
 1d2:	e1 a1       	ldd	r30, Z+33	; 0x21
 1d4:	f0 e0       	ldi	r31, 0x00	; 0
 1d6:	61 a3       	std	Z+33, r22	; 0x21
 1d8:	08 95       	ret

000001da <DIO_voidSetRegisterValue>:
 1da:	84 30       	cpi	r24, 0x04	; 4
 1dc:	30 f5       	brcc	.+76     	; 0x22a <DIO_voidSetRegisterValue+0x50>
 1de:	81 30       	cpi	r24, 0x01	; 1
 1e0:	79 f0       	breq	.+30     	; 0x200 <DIO_voidSetRegisterValue+0x26>
 1e2:	81 30       	cpi	r24, 0x01	; 1
 1e4:	28 f0       	brcs	.+10     	; 0x1f0 <DIO_voidSetRegisterValue+0x16>
 1e6:	82 30       	cpi	r24, 0x02	; 2
 1e8:	e9 f0       	breq	.+58     	; 0x224 <DIO_voidSetRegisterValue+0x4a>
 1ea:	83 30       	cpi	r24, 0x03	; 3
 1ec:	f1 f4       	brne	.+60     	; 0x22a <DIO_voidSetRegisterValue+0x50>
 1ee:	10 c0       	rjmp	.+32     	; 0x210 <DIO_voidSetRegisterValue+0x36>
 1f0:	e0 b3       	in	r30, 0x10	; 16
 1f2:	f0 e0       	ldi	r31, 0x00	; 0
 1f4:	e1 a1       	ldd	r30, Z+33	; 0x21
 1f6:	f0 e0       	ldi	r31, 0x00	; 0
 1f8:	e1 a1       	ldd	r30, Z+33	; 0x21
 1fa:	f0 e0       	ldi	r31, 0x00	; 0
 1fc:	e1 a1       	ldd	r30, Z+33	; 0x21
 1fe:	01 c0       	rjmp	.+2      	; 0x202 <DIO_voidSetRegisterValue+0x28>
 200:	e0 b3       	in	r30, 0x10	; 16
 202:	f0 e0       	ldi	r31, 0x00	; 0
 204:	e1 a1       	ldd	r30, Z+33	; 0x21
 206:	f0 e0       	ldi	r31, 0x00	; 0
 208:	e1 a1       	ldd	r30, Z+33	; 0x21
 20a:	f0 e0       	ldi	r31, 0x00	; 0
 20c:	e1 a1       	ldd	r30, Z+33	; 0x21
 20e:	01 c0       	rjmp	.+2      	; 0x212 <DIO_voidSetRegisterValue+0x38>
 210:	e0 b3       	in	r30, 0x10	; 16
 212:	f0 e0       	ldi	r31, 0x00	; 0
 214:	e1 a1       	ldd	r30, Z+33	; 0x21
 216:	f0 e0       	ldi	r31, 0x00	; 0
 218:	e1 a1       	ldd	r30, Z+33	; 0x21
 21a:	f0 e0       	ldi	r31, 0x00	; 0
 21c:	e1 a1       	ldd	r30, Z+33	; 0x21
 21e:	f0 e0       	ldi	r31, 0x00	; 0
 220:	61 a3       	std	Z+33, r22	; 0x21
 222:	08 95       	ret
 224:	e0 b3       	in	r30, 0x10	; 16
 226:	f0 e0       	ldi	r31, 0x00	; 0
 228:	61 a3       	std	Z+33, r22	; 0x21
 22a:	08 95       	ret

0000022c <DIO_cu8GetPinValue>:
 22c:	84 30       	cpi	r24, 0x04	; 4
 22e:	50 f5       	brcc	.+84     	; 0x284 <DIO_cu8GetPinValue+0x58>
 230:	81 30       	cpi	r24, 0x01	; 1
 232:	79 f0       	breq	.+30     	; 0x252 <DIO_cu8GetPinValue+0x26>
 234:	81 30       	cpi	r24, 0x01	; 1
 236:	28 f0       	brcs	.+10     	; 0x242 <DIO_cu8GetPinValue+0x16>
 238:	82 30       	cpi	r24, 0x02	; 2
 23a:	d9 f0       	breq	.+54     	; 0x272 <DIO_cu8GetPinValue+0x46>
 23c:	83 30       	cpi	r24, 0x03	; 3
 23e:	11 f5       	brne	.+68     	; 0x284 <DIO_cu8GetPinValue+0x58>
 240:	10 c0       	rjmp	.+32     	; 0x262 <DIO_cu8GetPinValue+0x36>
 242:	e0 b3       	in	r30, 0x10	; 16
 244:	f0 e0       	ldi	r31, 0x00	; 0
 246:	e1 a1       	ldd	r30, Z+33	; 0x21
 248:	f0 e0       	ldi	r31, 0x00	; 0
 24a:	e1 a1       	ldd	r30, Z+33	; 0x21
 24c:	f0 e0       	ldi	r31, 0x00	; 0
 24e:	e1 a1       	ldd	r30, Z+33	; 0x21
 250:	01 c0       	rjmp	.+2      	; 0x254 <DIO_cu8GetPinValue+0x28>
 252:	e0 b3       	in	r30, 0x10	; 16
 254:	f0 e0       	ldi	r31, 0x00	; 0
 256:	e1 a1       	ldd	r30, Z+33	; 0x21
 258:	f0 e0       	ldi	r31, 0x00	; 0
 25a:	e1 a1       	ldd	r30, Z+33	; 0x21
 25c:	f0 e0       	ldi	r31, 0x00	; 0
 25e:	e1 a1       	ldd	r30, Z+33	; 0x21
 260:	01 c0       	rjmp	.+2      	; 0x264 <DIO_cu8GetPinValue+0x38>
 262:	e0 b3       	in	r30, 0x10	; 16
 264:	f0 e0       	ldi	r31, 0x00	; 0
 266:	e1 a1       	ldd	r30, Z+33	; 0x21
 268:	f0 e0       	ldi	r31, 0x00	; 0
 26a:	e1 a1       	ldd	r30, Z+33	; 0x21
 26c:	f0 e0       	ldi	r31, 0x00	; 0
 26e:	81 a1       	ldd	r24, Z+33	; 0x21
 270:	01 c0       	rjmp	.+2      	; 0x274 <DIO_cu8GetPinValue+0x48>
 272:	80 b3       	in	r24, 0x10	; 16
 274:	90 e0       	ldi	r25, 0x00	; 0
 276:	02 c0       	rjmp	.+4      	; 0x27c <DIO_cu8GetPinValue+0x50>
 278:	95 95       	asr	r25
 27a:	87 95       	ror	r24
 27c:	6a 95       	dec	r22
 27e:	e2 f7       	brpl	.-8      	; 0x278 <DIO_cu8GetPinValue+0x4c>
 280:	81 70       	andi	r24, 0x01	; 1
 282:	08 95       	ret
 284:	80 e0       	ldi	r24, 0x00	; 0
 286:	08 95       	ret

00000288 <DIO_cu8GetRegisterValue>:
 288:	84 30       	cpi	r24, 0x04	; 4
 28a:	18 f5       	brcc	.+70     	; 0x2d2 <DIO_cu8GetRegisterValue+0x4a>
 28c:	81 30       	cpi	r24, 0x01	; 1
 28e:	79 f0       	breq	.+30     	; 0x2ae <DIO_cu8GetRegisterValue+0x26>
 290:	81 30       	cpi	r24, 0x01	; 1
 292:	28 f0       	brcs	.+10     	; 0x29e <DIO_cu8GetRegisterValue+0x16>
 294:	82 30       	cpi	r24, 0x02	; 2
 296:	d9 f0       	breq	.+54     	; 0x2ce <DIO_cu8GetRegisterValue+0x46>
 298:	83 30       	cpi	r24, 0x03	; 3
 29a:	d9 f4       	brne	.+54     	; 0x2d2 <DIO_cu8GetRegisterValue+0x4a>
 29c:	16 c0       	rjmp	.+44     	; 0x2ca <DIO_cu8GetRegisterValue+0x42>
 29e:	e0 b3       	in	r30, 0x10	; 16
 2a0:	f0 e0       	ldi	r31, 0x00	; 0
 2a2:	e1 a1       	ldd	r30, Z+33	; 0x21
 2a4:	f0 e0       	ldi	r31, 0x00	; 0
 2a6:	e1 a1       	ldd	r30, Z+33	; 0x21
 2a8:	f0 e0       	ldi	r31, 0x00	; 0
 2aa:	e1 a1       	ldd	r30, Z+33	; 0x21
 2ac:	01 c0       	rjmp	.+2      	; 0x2b0 <DIO_cu8GetRegisterValue+0x28>
 2ae:	e0 b3       	in	r30, 0x10	; 16
 2b0:	f0 e0       	ldi	r31, 0x00	; 0
 2b2:	e1 a1       	ldd	r30, Z+33	; 0x21
 2b4:	f0 e0       	ldi	r31, 0x00	; 0
 2b6:	e1 a1       	ldd	r30, Z+33	; 0x21
 2b8:	f0 e0       	ldi	r31, 0x00	; 0
 2ba:	e1 a1       	ldd	r30, Z+33	; 0x21
 2bc:	f0 e0       	ldi	r31, 0x00	; 0
 2be:	e1 a1       	ldd	r30, Z+33	; 0x21
 2c0:	f0 e0       	ldi	r31, 0x00	; 0
 2c2:	e1 a1       	ldd	r30, Z+33	; 0x21
 2c4:	f0 e0       	ldi	r31, 0x00	; 0
 2c6:	81 a1       	ldd	r24, Z+33	; 0x21
 2c8:	08 95       	ret
 2ca:	e0 b3       	in	r30, 0x10	; 16
 2cc:	f7 cf       	rjmp	.-18     	; 0x2bc <DIO_cu8GetRegisterValue+0x34>
 2ce:	80 b3       	in	r24, 0x10	; 16
 2d0:	08 95       	ret
 2d2:	80 e0       	ldi	r24, 0x00	; 0
 2d4:	08 95       	ret

000002d6 <main>:
 2d6:	ff cf       	rjmp	.-2      	; 0x2d6 <main>

000002d8 <_exit>:
 2d8:	f8 94       	cli

000002da <__stop_program>:
 2da:	ff cf       	rjmp	.-2      	; 0x2da <__stop_program>
