
ATmega32_Drivers.elf:     file format elf32-avr

Sections:
Idx Name          Size      VMA       LMA       File off  Algn
  0 .text         00000612  00000000  00000000  00000094  2**1
                  CONTENTS, ALLOC, LOAD, READONLY, CODE
  1 .data         00000086  00800060  00000612  000006a6  2**0
                  CONTENTS, ALLOC, LOAD, DATA
  2 .bss          00000030  008000e6  008000e6  0000072c  2**0
                  ALLOC

Disassembly of section .text:

00000000 <__vectors>:
   0:	0c 94 2a 00 	jmp	0x54	; 0x54 <__ctors_end>
   4:	0c 94 47 00 	jmp	0x8e	; 0x8e <__bad_interrupt>
   8:	0c 94 47 00 	jmp	0x8e	; 0x8e <__bad_interrupt>
   c:	0c 94 47 00 	jmp	0x8e	; 0x8e <__bad_interrupt>
  10:	0c 94 47 00 	jmp	0x8e	; 0x8e <__bad_interrupt>
  14:	0c 94 47 00 	jmp	0x8e	; 0x8e <__bad_interrupt>
  18:	0c 94 47 00 	jmp	0x8e	; 0x8e <__bad_interrupt>
  1c:	0c 94 47 00 	jmp	0x8e	; 0x8e <__bad_interrupt>
  20:	0c 94 47 00 	jmp	0x8e	; 0x8e <__bad_interrupt>
  24:	0c 94 47 00 	jmp	0x8e	; 0x8e <__bad_interrupt>
  28:	0c 94 47 00 	jmp	0x8e	; 0x8e <__bad_interrupt>
  2c:	0c 94 47 00 	jmp	0x8e	; 0x8e <__bad_interrupt>
  30:	0c 94 47 00 	jmp	0x8e	; 0x8e <__bad_interrupt>
  34:	0c 94 47 00 	jmp	0x8e	; 0x8e <__bad_interrupt>
  38:	0c 94 47 00 	jmp	0x8e	; 0x8e <__bad_interrupt>
  3c:	0c 94 47 00 	jmp	0x8e	; 0x8e <__bad_interrupt>
  40:	0c 94 47 00 	jmp	0x8e	; 0x8e <__bad_interrupt>
  44:	0c 94 47 00 	jmp	0x8e	; 0x8e <__bad_interrupt>
  48:	0c 94 47 00 	jmp	0x8e	; 0x8e <__bad_interrupt>
  4c:	0c 94 47 00 	jmp	0x8e	; 0x8e <__bad_interrupt>
  50:	0c 94 47 00 	jmp	0x8e	; 0x8e <__bad_interrupt>

00000054 <__ctors_end>:
  54:	11 24       	eor	r1, r1
  56:	1f be       	out	0x3f, r1	; 63
  58:	cf e5       	ldi	r28, 0x5F	; 95
  5a:	d8 e0       	ldi	r29, 0x08	; 8
  5c:	de bf       	out	0x3e, r29	; 62
  5e:	cd bf       	out	0x3d, r28	; 61

00000060 <__do_copy_data>:
  60:	10 e0       	ldi	r17, 0x00	; 0
  62:	a0 e6       	ldi	r26, 0x60	; 96
  64:	b0 e0       	ldi	r27, 0x00	; 0
  66:	e2 e1       	ldi	r30, 0x12	; 18
  68:	f6 e0       	ldi	r31, 0x06	; 6
  6a:	02 c0       	rjmp	.+4      	; 0x70 <.do_copy_data_start>

0000006c <.do_copy_data_loop>:
  6c:	05 90       	lpm	r0, Z+
  6e:	0d 92       	st	X+, r0

00000070 <.do_copy_data_start>:
  70:	a6 3e       	cpi	r26, 0xE6	; 230
  72:	b1 07       	cpc	r27, r17
  74:	d9 f7       	brne	.-10     	; 0x6c <.do_copy_data_loop>

00000076 <__do_clear_bss>:
  76:	11 e0       	ldi	r17, 0x01	; 1
  78:	a6 ee       	ldi	r26, 0xE6	; 230
  7a:	b0 e0       	ldi	r27, 0x00	; 0
  7c:	01 c0       	rjmp	.+2      	; 0x80 <.do_clear_bss_start>

0000007e <.do_clear_bss_loop>:
  7e:	1d 92       	st	X+, r1

00000080 <.do_clear_bss_start>:
  80:	a6 31       	cpi	r26, 0x16	; 22
  82:	b1 07       	cpc	r27, r17
  84:	e1 f7       	brne	.-8      	; 0x7e <.do_clear_bss_loop>
  86:	0e 94 a9 02 	call	0x552	; 0x552 <main>
  8a:	0c 94 07 03 	jmp	0x60e	; 0x60e <_exit>

0000008e <__bad_interrupt>:
  8e:	0c 94 00 00 	jmp	0	; 0x0 <__vectors>

00000092 <DIO_voidDioInitialization>:
  92:	08 95       	ret

00000094 <DIO_voidDioReset>:
  94:	08 95       	ret

00000096 <DIO_voidSetPinDirection>:
  96:	84 30       	cpi	r24, 0x04	; 4
  98:	08 f0       	brcs	.+2      	; 0x9c <DIO_voidSetPinDirection+0x6>
  9a:	61 c0       	rjmp	.+194    	; 0x15e <DIO_voidSetPinDirection+0xc8>
  9c:	68 30       	cpi	r22, 0x08	; 8
  9e:	08 f0       	brcs	.+2      	; 0xa2 <DIO_voidSetPinDirection+0xc>
  a0:	5e c0       	rjmp	.+188    	; 0x15e <DIO_voidSetPinDirection+0xc8>
  a2:	81 30       	cpi	r24, 0x01	; 1
  a4:	f1 f0       	breq	.+60     	; 0xe2 <DIO_voidSetPinDirection+0x4c>
  a6:	81 30       	cpi	r24, 0x01	; 1
  a8:	38 f0       	brcs	.+14     	; 0xb8 <DIO_voidSetPinDirection+0x22>
  aa:	82 30       	cpi	r24, 0x02	; 2
  ac:	09 f4       	brne	.+2      	; 0xb0 <DIO_voidSetPinDirection+0x1a>
  ae:	43 c0       	rjmp	.+134    	; 0x136 <DIO_voidSetPinDirection+0xa0>
  b0:	83 30       	cpi	r24, 0x03	; 3
  b2:	09 f0       	breq	.+2      	; 0xb6 <DIO_voidSetPinDirection+0x20>
  b4:	54 c0       	rjmp	.+168    	; 0x15e <DIO_voidSetPinDirection+0xc8>
  b6:	2a c0       	rjmp	.+84     	; 0x10c <DIO_voidSetPinDirection+0x76>
  b8:	8a b3       	in	r24, 0x1a	; 26
  ba:	21 e0       	ldi	r18, 0x01	; 1
  bc:	30 e0       	ldi	r19, 0x00	; 0
  be:	06 2e       	mov	r0, r22
  c0:	02 c0       	rjmp	.+4      	; 0xc6 <DIO_voidSetPinDirection+0x30>
  c2:	22 0f       	add	r18, r18
  c4:	33 1f       	adc	r19, r19
  c6:	0a 94       	dec	r0
  c8:	e2 f7       	brpl	.-8      	; 0xc2 <DIO_voidSetPinDirection+0x2c>
  ca:	20 95       	com	r18
  cc:	28 23       	and	r18, r24
  ce:	84 2f       	mov	r24, r20
  d0:	90 e0       	ldi	r25, 0x00	; 0
  d2:	02 c0       	rjmp	.+4      	; 0xd8 <DIO_voidSetPinDirection+0x42>
  d4:	88 0f       	add	r24, r24
  d6:	99 1f       	adc	r25, r25
  d8:	6a 95       	dec	r22
  da:	e2 f7       	brpl	.-8      	; 0xd4 <DIO_voidSetPinDirection+0x3e>
  dc:	28 2b       	or	r18, r24
  de:	2a bb       	out	0x1a, r18	; 26
  e0:	08 95       	ret
  e2:	87 b3       	in	r24, 0x17	; 23
  e4:	21 e0       	ldi	r18, 0x01	; 1
  e6:	30 e0       	ldi	r19, 0x00	; 0
  e8:	06 2e       	mov	r0, r22
  ea:	02 c0       	rjmp	.+4      	; 0xf0 <DIO_voidSetPinDirection+0x5a>
  ec:	22 0f       	add	r18, r18
  ee:	33 1f       	adc	r19, r19
  f0:	0a 94       	dec	r0
  f2:	e2 f7       	brpl	.-8      	; 0xec <DIO_voidSetPinDirection+0x56>
  f4:	20 95       	com	r18
  f6:	28 23       	and	r18, r24
  f8:	84 2f       	mov	r24, r20
  fa:	90 e0       	ldi	r25, 0x00	; 0
  fc:	02 c0       	rjmp	.+4      	; 0x102 <DIO_voidSetPinDirection+0x6c>
  fe:	88 0f       	add	r24, r24
 100:	99 1f       	adc	r25, r25
 102:	6a 95       	dec	r22
 104:	e2 f7       	brpl	.-8      	; 0xfe <DIO_voidSetPinDirection+0x68>
 106:	28 2b       	or	r18, r24
 108:	27 bb       	out	0x17, r18	; 23
 10a:	08 95       	ret
 10c:	84 b3       	in	r24, 0x14	; 20
 10e:	21 e0       	ldi	r18, 0x01	; 1
 110:	30 e0       	ldi	r19, 0x00	; 0
 112:	06 2e       	mov	r0, r22
 114:	02 c0       	rjmp	.+4      	; 0x11a <DIO_voidSetPinDirection+0x84>
 116:	22 0f       	add	r18, r18
 118:	33 1f       	adc	r19, r19
 11a:	0a 94       	dec	r0
 11c:	e2 f7       	brpl	.-8      	; 0x116 <DIO_voidSetPinDirection+0x80>
 11e:	20 95       	com	r18
 120:	28 23       	and	r18, r24
 122:	84 2f       	mov	r24, r20
 124:	90 e0       	ldi	r25, 0x00	; 0
 126:	02 c0       	rjmp	.+4      	; 0x12c <DIO_voidSetPinDirection+0x96>
 128:	88 0f       	add	r24, r24
 12a:	99 1f       	adc	r25, r25
 12c:	6a 95       	dec	r22
 12e:	e2 f7       	brpl	.-8      	; 0x128 <DIO_voidSetPinDirection+0x92>
 130:	28 2b       	or	r18, r24
 132:	24 bb       	out	0x14, r18	; 20
 134:	08 95       	ret
 136:	81 b3       	in	r24, 0x11	; 17
 138:	21 e0       	ldi	r18, 0x01	; 1
 13a:	30 e0       	ldi	r19, 0x00	; 0
 13c:	06 2e       	mov	r0, r22
 13e:	02 c0       	rjmp	.+4      	; 0x144 <DIO_voidSetPinDirection+0xae>
 140:	22 0f       	add	r18, r18
 142:	33 1f       	adc	r19, r19
 144:	0a 94       	dec	r0
 146:	e2 f7       	brpl	.-8      	; 0x140 <DIO_voidSetPinDirection+0xaa>
 148:	20 95       	com	r18
 14a:	28 23       	and	r18, r24
 14c:	84 2f       	mov	r24, r20
 14e:	90 e0       	ldi	r25, 0x00	; 0
 150:	02 c0       	rjmp	.+4      	; 0x156 <DIO_voidSetPinDirection+0xc0>
 152:	88 0f       	add	r24, r24
 154:	99 1f       	adc	r25, r25
 156:	6a 95       	dec	r22
 158:	e2 f7       	brpl	.-8      	; 0x152 <DIO_voidSetPinDirection+0xbc>
 15a:	28 2b       	or	r18, r24
 15c:	21 bb       	out	0x11, r18	; 17
 15e:	08 95       	ret

00000160 <DIO_voidSetPinValue>:
 160:	84 30       	cpi	r24, 0x04	; 4
 162:	08 f0       	brcs	.+2      	; 0x166 <DIO_voidSetPinValue+0x6>
 164:	61 c0       	rjmp	.+194    	; 0x228 <DIO_voidSetPinValue+0xc8>
 166:	68 30       	cpi	r22, 0x08	; 8
 168:	08 f0       	brcs	.+2      	; 0x16c <DIO_voidSetPinValue+0xc>
 16a:	5e c0       	rjmp	.+188    	; 0x228 <DIO_voidSetPinValue+0xc8>
 16c:	81 30       	cpi	r24, 0x01	; 1
 16e:	f1 f0       	breq	.+60     	; 0x1ac <DIO_voidSetPinValue+0x4c>
 170:	81 30       	cpi	r24, 0x01	; 1
 172:	38 f0       	brcs	.+14     	; 0x182 <DIO_voidSetPinValue+0x22>
 174:	82 30       	cpi	r24, 0x02	; 2
 176:	09 f4       	brne	.+2      	; 0x17a <DIO_voidSetPinValue+0x1a>
 178:	43 c0       	rjmp	.+134    	; 0x200 <DIO_voidSetPinValue+0xa0>
 17a:	83 30       	cpi	r24, 0x03	; 3
 17c:	09 f0       	breq	.+2      	; 0x180 <DIO_voidSetPinValue+0x20>
 17e:	54 c0       	rjmp	.+168    	; 0x228 <DIO_voidSetPinValue+0xc8>
 180:	2a c0       	rjmp	.+84     	; 0x1d6 <DIO_voidSetPinValue+0x76>
 182:	8b b3       	in	r24, 0x1b	; 27
 184:	21 e0       	ldi	r18, 0x01	; 1
 186:	30 e0       	ldi	r19, 0x00	; 0
 188:	06 2e       	mov	r0, r22
 18a:	02 c0       	rjmp	.+4      	; 0x190 <DIO_voidSetPinValue+0x30>
 18c:	22 0f       	add	r18, r18
 18e:	33 1f       	adc	r19, r19
 190:	0a 94       	dec	r0
 192:	e2 f7       	brpl	.-8      	; 0x18c <DIO_voidSetPinValue+0x2c>
 194:	20 95       	com	r18
 196:	28 23       	and	r18, r24
 198:	84 2f       	mov	r24, r20
 19a:	90 e0       	ldi	r25, 0x00	; 0
 19c:	02 c0       	rjmp	.+4      	; 0x1a2 <DIO_voidSetPinValue+0x42>
 19e:	88 0f       	add	r24, r24
 1a0:	99 1f       	adc	r25, r25
 1a2:	6a 95       	dec	r22
 1a4:	e2 f7       	brpl	.-8      	; 0x19e <DIO_voidSetPinValue+0x3e>
 1a6:	28 2b       	or	r18, r24
 1a8:	2b bb       	out	0x1b, r18	; 27
 1aa:	08 95       	ret
 1ac:	88 b3       	in	r24, 0x18	; 24
 1ae:	21 e0       	ldi	r18, 0x01	; 1
 1b0:	30 e0       	ldi	r19, 0x00	; 0
 1b2:	06 2e       	mov	r0, r22
 1b4:	02 c0       	rjmp	.+4      	; 0x1ba <DIO_voidSetPinValue+0x5a>
 1b6:	22 0f       	add	r18, r18
 1b8:	33 1f       	adc	r19, r19
 1ba:	0a 94       	dec	r0
 1bc:	e2 f7       	brpl	.-8      	; 0x1b6 <DIO_voidSetPinValue+0x56>
 1be:	20 95       	com	r18
 1c0:	28 23       	and	r18, r24
 1c2:	84 2f       	mov	r24, r20
 1c4:	90 e0       	ldi	r25, 0x00	; 0
 1c6:	02 c0       	rjmp	.+4      	; 0x1cc <DIO_voidSetPinValue+0x6c>
 1c8:	88 0f       	add	r24, r24
 1ca:	99 1f       	adc	r25, r25
 1cc:	6a 95       	dec	r22
 1ce:	e2 f7       	brpl	.-8      	; 0x1c8 <DIO_voidSetPinValue+0x68>
 1d0:	28 2b       	or	r18, r24
 1d2:	28 bb       	out	0x18, r18	; 24
 1d4:	08 95       	ret
 1d6:	85 b3       	in	r24, 0x15	; 21
 1d8:	21 e0       	ldi	r18, 0x01	; 1
 1da:	30 e0       	ldi	r19, 0x00	; 0
 1dc:	06 2e       	mov	r0, r22
 1de:	02 c0       	rjmp	.+4      	; 0x1e4 <DIO_voidSetPinValue+0x84>
 1e0:	22 0f       	add	r18, r18
 1e2:	33 1f       	adc	r19, r19
 1e4:	0a 94       	dec	r0
 1e6:	e2 f7       	brpl	.-8      	; 0x1e0 <DIO_voidSetPinValue+0x80>
 1e8:	20 95       	com	r18
 1ea:	28 23       	and	r18, r24
 1ec:	84 2f       	mov	r24, r20
 1ee:	90 e0       	ldi	r25, 0x00	; 0
 1f0:	02 c0       	rjmp	.+4      	; 0x1f6 <DIO_voidSetPinValue+0x96>
 1f2:	88 0f       	add	r24, r24
 1f4:	99 1f       	adc	r25, r25
 1f6:	6a 95       	dec	r22
 1f8:	e2 f7       	brpl	.-8      	; 0x1f2 <DIO_voidSetPinValue+0x92>
 1fa:	28 2b       	or	r18, r24
 1fc:	25 bb       	out	0x15, r18	; 21
 1fe:	08 95       	ret
 200:	82 b3       	in	r24, 0x12	; 18
 202:	21 e0       	ldi	r18, 0x01	; 1
 204:	30 e0       	ldi	r19, 0x00	; 0
 206:	06 2e       	mov	r0, r22
 208:	02 c0       	rjmp	.+4      	; 0x20e <DIO_voidSetPinValue+0xae>
 20a:	22 0f       	add	r18, r18
 20c:	33 1f       	adc	r19, r19
 20e:	0a 94       	dec	r0
 210:	e2 f7       	brpl	.-8      	; 0x20a <DIO_voidSetPinValue+0xaa>
 212:	20 95       	com	r18
 214:	28 23       	and	r18, r24
 216:	84 2f       	mov	r24, r20
 218:	90 e0       	ldi	r25, 0x00	; 0
 21a:	02 c0       	rjmp	.+4      	; 0x220 <DIO_voidSetPinValue+0xc0>
 21c:	88 0f       	add	r24, r24
 21e:	99 1f       	adc	r25, r25
 220:	6a 95       	dec	r22
 222:	e2 f7       	brpl	.-8      	; 0x21c <DIO_voidSetPinValue+0xbc>
 224:	28 2b       	or	r18, r24
 226:	22 bb       	out	0x12, r18	; 18
 228:	08 95       	ret

0000022a <DIO_voidSetRegisterDirection>:
 22a:	84 30       	cpi	r24, 0x04	; 4
 22c:	80 f4       	brcc	.+32     	; 0x24e <DIO_voidSetRegisterDirection+0x24>
 22e:	81 30       	cpi	r24, 0x01	; 1
 230:	49 f0       	breq	.+18     	; 0x244 <DIO_voidSetRegisterDirection+0x1a>
 232:	81 30       	cpi	r24, 0x01	; 1
 234:	28 f0       	brcs	.+10     	; 0x240 <DIO_voidSetRegisterDirection+0x16>
 236:	82 30       	cpi	r24, 0x02	; 2
 238:	49 f0       	breq	.+18     	; 0x24c <DIO_voidSetRegisterDirection+0x22>
 23a:	83 30       	cpi	r24, 0x03	; 3
 23c:	41 f4       	brne	.+16     	; 0x24e <DIO_voidSetRegisterDirection+0x24>
 23e:	04 c0       	rjmp	.+8      	; 0x248 <DIO_voidSetRegisterDirection+0x1e>
 240:	6a bb       	out	0x1a, r22	; 26
 242:	08 95       	ret
 244:	67 bb       	out	0x17, r22	; 23
 246:	08 95       	ret
 248:	64 bb       	out	0x14, r22	; 20
 24a:	08 95       	ret
 24c:	61 bb       	out	0x11, r22	; 17
 24e:	08 95       	ret

00000250 <DIO_voidSetRegisterValue>:
 250:	84 30       	cpi	r24, 0x04	; 4
 252:	80 f4       	brcc	.+32     	; 0x274 <DIO_voidSetRegisterValue+0x24>
 254:	81 30       	cpi	r24, 0x01	; 1
 256:	49 f0       	breq	.+18     	; 0x26a <DIO_voidSetRegisterValue+0x1a>
 258:	81 30       	cpi	r24, 0x01	; 1
 25a:	28 f0       	brcs	.+10     	; 0x266 <DIO_voidSetRegisterValue+0x16>
 25c:	82 30       	cpi	r24, 0x02	; 2
 25e:	49 f0       	breq	.+18     	; 0x272 <DIO_voidSetRegisterValue+0x22>
 260:	83 30       	cpi	r24, 0x03	; 3
 262:	41 f4       	brne	.+16     	; 0x274 <DIO_voidSetRegisterValue+0x24>
 264:	04 c0       	rjmp	.+8      	; 0x26e <DIO_voidSetRegisterValue+0x1e>
 266:	6b bb       	out	0x1b, r22	; 27
 268:	08 95       	ret
 26a:	68 bb       	out	0x18, r22	; 24
 26c:	08 95       	ret
 26e:	65 bb       	out	0x15, r22	; 21
 270:	08 95       	ret
 272:	62 bb       	out	0x12, r22	; 18
 274:	08 95       	ret

00000276 <DIO_u8GetPinValue>:
 276:	84 30       	cpi	r24, 0x04	; 4
 278:	c8 f4       	brcc	.+50     	; 0x2ac <DIO_u8GetPinValue+0x36>
 27a:	81 30       	cpi	r24, 0x01	; 1
 27c:	49 f0       	breq	.+18     	; 0x290 <DIO_u8GetPinValue+0x1a>
 27e:	81 30       	cpi	r24, 0x01	; 1
 280:	28 f0       	brcs	.+10     	; 0x28c <DIO_u8GetPinValue+0x16>
 282:	82 30       	cpi	r24, 0x02	; 2
 284:	89 f0       	breq	.+34     	; 0x2a8 <DIO_u8GetPinValue+0x32>
 286:	83 30       	cpi	r24, 0x03	; 3
 288:	89 f4       	brne	.+34     	; 0x2ac <DIO_u8GetPinValue+0x36>
 28a:	04 c0       	rjmp	.+8      	; 0x294 <DIO_u8GetPinValue+0x1e>
 28c:	29 b3       	in	r18, 0x19	; 25
 28e:	03 c0       	rjmp	.+6      	; 0x296 <DIO_u8GetPinValue+0x20>
 290:	26 b3       	in	r18, 0x16	; 22
 292:	01 c0       	rjmp	.+2      	; 0x296 <DIO_u8GetPinValue+0x20>
 294:	23 b3       	in	r18, 0x13	; 19
 296:	81 e0       	ldi	r24, 0x01	; 1
 298:	90 e0       	ldi	r25, 0x00	; 0
 29a:	02 c0       	rjmp	.+4      	; 0x2a0 <DIO_u8GetPinValue+0x2a>
 29c:	88 0f       	add	r24, r24
 29e:	99 1f       	adc	r25, r25
 2a0:	6a 95       	dec	r22
 2a2:	e2 f7       	brpl	.-8      	; 0x29c <DIO_u8GetPinValue+0x26>
 2a4:	28 23       	and	r18, r24
 2a6:	03 c0       	rjmp	.+6      	; 0x2ae <DIO_u8GetPinValue+0x38>
 2a8:	20 b3       	in	r18, 0x10	; 16
 2aa:	f5 cf       	rjmp	.-22     	; 0x296 <DIO_u8GetPinValue+0x20>
 2ac:	20 e0       	ldi	r18, 0x00	; 0
 2ae:	82 2f       	mov	r24, r18
 2b0:	08 95       	ret

000002b2 <DIO_u8GetRegisterValue>:
 2b2:	84 30       	cpi	r24, 0x04	; 4
 2b4:	88 f4       	brcc	.+34     	; 0x2d8 <DIO_u8GetRegisterValue+0x26>
 2b6:	81 30       	cpi	r24, 0x01	; 1
 2b8:	49 f0       	breq	.+18     	; 0x2cc <DIO_u8GetRegisterValue+0x1a>
 2ba:	81 30       	cpi	r24, 0x01	; 1
 2bc:	28 f0       	brcs	.+10     	; 0x2c8 <DIO_u8GetRegisterValue+0x16>
 2be:	82 30       	cpi	r24, 0x02	; 2
 2c0:	49 f0       	breq	.+18     	; 0x2d4 <DIO_u8GetRegisterValue+0x22>
 2c2:	83 30       	cpi	r24, 0x03	; 3
 2c4:	49 f4       	brne	.+18     	; 0x2d8 <DIO_u8GetRegisterValue+0x26>
 2c6:	04 c0       	rjmp	.+8      	; 0x2d0 <DIO_u8GetRegisterValue+0x1e>
 2c8:	89 b3       	in	r24, 0x19	; 25
 2ca:	08 95       	ret
 2cc:	86 b3       	in	r24, 0x16	; 22
 2ce:	08 95       	ret
 2d0:	83 b3       	in	r24, 0x13	; 19
 2d2:	08 95       	ret
 2d4:	80 b3       	in	r24, 0x10	; 16
 2d6:	08 95       	ret
 2d8:	80 e0       	ldi	r24, 0x00	; 0
 2da:	08 95       	ret

000002dc <SSD_voidSsdTurnOff>:
 2dc:	08 95       	ret

000002de <SSD_voidSsdSetPin>:
 2de:	88 23       	and	r24, r24
 2e0:	19 f0       	breq	.+6      	; 0x2e8 <SSD_voidSsdSetPin+0xa>
 2e2:	81 30       	cpi	r24, 0x01	; 1
 2e4:	91 f4       	brne	.+36     	; 0x30a <SSD_voidSsdSetPin+0x2c>
 2e6:	09 c0       	rjmp	.+18     	; 0x2fa <SSD_voidSsdSetPin+0x1c>
 2e8:	e6 2f       	mov	r30, r22
 2ea:	f0 e0       	ldi	r31, 0x00	; 0
 2ec:	e2 55       	subi	r30, 0x52	; 82
 2ee:	ff 4f       	sbci	r31, 0xFF	; 255
 2f0:	82 e0       	ldi	r24, 0x02	; 2
 2f2:	60 81       	ld	r22, Z
 2f4:	0e 94 28 01 	call	0x250	; 0x250 <DIO_voidSetRegisterValue>
 2f8:	08 95       	ret
 2fa:	e6 2f       	mov	r30, r22
 2fc:	f0 e0       	ldi	r31, 0x00	; 0
 2fe:	e2 55       	subi	r30, 0x52	; 82
 300:	ff 4f       	sbci	r31, 0xFF	; 255
 302:	81 e0       	ldi	r24, 0x01	; 1
 304:	60 81       	ld	r22, Z
 306:	0e 94 28 01 	call	0x250	; 0x250 <DIO_voidSetRegisterValue>
 30a:	08 95       	ret

0000030c <SSD_voidSsdSetNumber>:
 30c:	88 23       	and	r24, r24
 30e:	19 f0       	breq	.+6      	; 0x316 <SSD_voidSsdSetNumber+0xa>
 310:	81 30       	cpi	r24, 0x01	; 1
 312:	91 f4       	brne	.+36     	; 0x338 <SSD_voidSsdSetNumber+0x2c>
 314:	09 c0       	rjmp	.+18     	; 0x328 <SSD_voidSsdSetNumber+0x1c>
 316:	e6 2f       	mov	r30, r22
 318:	f0 e0       	ldi	r31, 0x00	; 0
 31a:	ea 54       	subi	r30, 0x4A	; 74
 31c:	ff 4f       	sbci	r31, 0xFF	; 255
 31e:	82 e0       	ldi	r24, 0x02	; 2
 320:	60 81       	ld	r22, Z
 322:	0e 94 28 01 	call	0x250	; 0x250 <DIO_voidSetRegisterValue>
 326:	08 95       	ret
 328:	e6 2f       	mov	r30, r22
 32a:	f0 e0       	ldi	r31, 0x00	; 0
 32c:	ea 54       	subi	r30, 0x4A	; 74
 32e:	ff 4f       	sbci	r31, 0xFF	; 255
 330:	81 e0       	ldi	r24, 0x01	; 1
 332:	60 81       	ld	r22, Z
 334:	0e 94 28 01 	call	0x250	; 0x250 <DIO_voidSetRegisterValue>
 338:	08 95       	ret

0000033a <SSD_voidSsdTurnOn>:
 33a:	88 23       	and	r24, r24
 33c:	19 f0       	breq	.+6      	; 0x344 <SSD_voidSsdTurnOn+0xa>
 33e:	81 30       	cpi	r24, 0x01	; 1
 340:	81 f4       	brne	.+32     	; 0x362 <SSD_voidSsdTurnOn+0x28>
 342:	08 c0       	rjmp	.+16     	; 0x354 <SSD_voidSsdTurnOn+0x1a>
 344:	80 91 78 00 	lds	r24, 0x0078
 348:	60 91 79 00 	lds	r22, 0x0079
 34c:	40 e0       	ldi	r20, 0x00	; 0
 34e:	0e 94 b0 00 	call	0x160	; 0x160 <DIO_voidSetPinValue>
 352:	08 95       	ret
 354:	80 91 93 00 	lds	r24, 0x0093
 358:	60 91 94 00 	lds	r22, 0x0094
 35c:	40 e0       	ldi	r20, 0x00	; 0
 35e:	0e 94 b0 00 	call	0x160	; 0x160 <DIO_voidSetPinValue>
 362:	08 95       	ret

00000364 <SSD_voidSetSsdPinValue>:
 364:	88 23       	and	r24, r24
 366:	19 f0       	breq	.+6      	; 0x36e <SSD_voidSetSsdPinValue+0xa>
 368:	81 30       	cpi	r24, 0x01	; 1
 36a:	f1 f4       	brne	.+60     	; 0x3a8 <SSD_voidSetSsdPinValue+0x44>
 36c:	0f c0       	rjmp	.+30     	; 0x38c <SSD_voidSetSsdPinValue+0x28>
 36e:	86 2f       	mov	r24, r22
 370:	90 e0       	ldi	r25, 0x00	; 0
 372:	fc 01       	movw	r30, r24
 374:	ee 0f       	add	r30, r30
 376:	ff 1f       	adc	r31, r31
 378:	e8 0f       	add	r30, r24
 37a:	f9 1f       	adc	r31, r25
 37c:	e0 5a       	subi	r30, 0xA0	; 160
 37e:	ff 4f       	sbci	r31, 0xFF	; 255
 380:	80 81       	ld	r24, Z
 382:	61 81       	ldd	r22, Z+1	; 0x01
 384:	42 81       	ldd	r20, Z+2	; 0x02
 386:	0e 94 b0 00 	call	0x160	; 0x160 <DIO_voidSetPinValue>
 38a:	08 95       	ret
 38c:	86 2f       	mov	r24, r22
 38e:	90 e0       	ldi	r25, 0x00	; 0
 390:	fc 01       	movw	r30, r24
 392:	ee 0f       	add	r30, r30
 394:	ff 1f       	adc	r31, r31
 396:	e8 0f       	add	r30, r24
 398:	f9 1f       	adc	r31, r25
 39a:	e5 58       	subi	r30, 0x85	; 133
 39c:	ff 4f       	sbci	r31, 0xFF	; 255
 39e:	80 81       	ld	r24, Z
 3a0:	61 81       	ldd	r22, Z+1	; 0x01
 3a2:	42 81       	ldd	r20, Z+2	; 0x02
 3a4:	0e 94 b0 00 	call	0x160	; 0x160 <DIO_voidSetPinValue>
 3a8:	08 95       	ret

000003aa <SSD_voidSetSsdPinDirection>:
 3aa:	88 23       	and	r24, r24
 3ac:	19 f0       	breq	.+6      	; 0x3b4 <SSD_voidSetSsdPinDirection+0xa>
 3ae:	81 30       	cpi	r24, 0x01	; 1
 3b0:	f1 f4       	brne	.+60     	; 0x3ee <SSD_voidSetSsdPinDirection+0x44>
 3b2:	0f c0       	rjmp	.+30     	; 0x3d2 <SSD_voidSetSsdPinDirection+0x28>
 3b4:	86 2f       	mov	r24, r22
 3b6:	90 e0       	ldi	r25, 0x00	; 0
 3b8:	fc 01       	movw	r30, r24
 3ba:	ee 0f       	add	r30, r30
 3bc:	ff 1f       	adc	r31, r31
 3be:	e8 0f       	add	r30, r24
 3c0:	f9 1f       	adc	r31, r25
 3c2:	e0 5a       	subi	r30, 0xA0	; 160
 3c4:	ff 4f       	sbci	r31, 0xFF	; 255
 3c6:	80 81       	ld	r24, Z
 3c8:	61 81       	ldd	r22, Z+1	; 0x01
 3ca:	41 e0       	ldi	r20, 0x01	; 1
 3cc:	0e 94 4b 00 	call	0x96	; 0x96 <DIO_voidSetPinDirection>
 3d0:	08 95       	ret
 3d2:	86 2f       	mov	r24, r22
 3d4:	90 e0       	ldi	r25, 0x00	; 0
 3d6:	fc 01       	movw	r30, r24
 3d8:	ee 0f       	add	r30, r30
 3da:	ff 1f       	adc	r31, r31
 3dc:	e8 0f       	add	r30, r24
 3de:	f9 1f       	adc	r31, r25
 3e0:	e5 58       	subi	r30, 0x85	; 133
 3e2:	ff 4f       	sbci	r31, 0xFF	; 255
 3e4:	80 81       	ld	r24, Z
 3e6:	61 81       	ldd	r22, Z+1	; 0x01
 3e8:	41 e0       	ldi	r20, 0x01	; 1
 3ea:	0e 94 4b 00 	call	0x96	; 0x96 <DIO_voidSetPinDirection>
 3ee:	08 95       	ret

000003f0 <SSD_voidSsdInitalization>:
 3f0:	1f 93       	push	r17
 3f2:	88 23       	and	r24, r24
 3f4:	19 f0       	breq	.+6      	; 0x3fc <SSD_voidSsdInitalization+0xc>
 3f6:	81 30       	cpi	r24, 0x01	; 1
 3f8:	d1 f4       	brne	.+52     	; 0x42e <SSD_voidSsdInitalization+0x3e>
 3fa:	0d c0       	rjmp	.+26     	; 0x416 <SSD_voidSsdInitalization+0x26>
 3fc:	10 e0       	ldi	r17, 0x00	; 0
 3fe:	81 e0       	ldi	r24, 0x01	; 1
 400:	61 2f       	mov	r22, r17
 402:	0e 94 d5 01 	call	0x3aa	; 0x3aa <SSD_voidSetSsdPinDirection>
 406:	81 e0       	ldi	r24, 0x01	; 1
 408:	61 2f       	mov	r22, r17
 40a:	0e 94 b2 01 	call	0x364	; 0x364 <SSD_voidSetSsdPinValue>
 40e:	1f 5f       	subi	r17, 0xFF	; 255
 410:	19 30       	cpi	r17, 0x09	; 9
 412:	a9 f7       	brne	.-22     	; 0x3fe <SSD_voidSsdInitalization+0xe>
 414:	0c c0       	rjmp	.+24     	; 0x42e <SSD_voidSsdInitalization+0x3e>
 416:	10 e0       	ldi	r17, 0x00	; 0
 418:	81 e0       	ldi	r24, 0x01	; 1
 41a:	61 2f       	mov	r22, r17
 41c:	0e 94 d5 01 	call	0x3aa	; 0x3aa <SSD_voidSetSsdPinDirection>
 420:	81 e0       	ldi	r24, 0x01	; 1
 422:	61 2f       	mov	r22, r17
 424:	0e 94 b2 01 	call	0x364	; 0x364 <SSD_voidSetSsdPinValue>
 428:	1f 5f       	subi	r17, 0xFF	; 255
 42a:	19 30       	cpi	r17, 0x09	; 9
 42c:	a9 f7       	brne	.-22     	; 0x418 <SSD_voidSsdInitalization+0x28>
 42e:	1f 91       	pop	r17
 430:	08 95       	ret

00000432 <LED_voidLedSetValue>:
 432:	90 e0       	ldi	r25, 0x00	; 0
 434:	fc 01       	movw	r30, r24
 436:	ee 0f       	add	r30, r30
 438:	ff 1f       	adc	r31, r31
 43a:	e8 0f       	add	r30, r24
 43c:	f9 1f       	adc	r31, r25
 43e:	ea 53       	subi	r30, 0x3A	; 58
 440:	ff 4f       	sbci	r31, 0xFF	; 255
 442:	80 81       	ld	r24, Z
 444:	61 81       	ldd	r22, Z+1	; 0x01
 446:	42 81       	ldd	r20, Z+2	; 0x02
 448:	0e 94 b0 00 	call	0x160	; 0x160 <DIO_voidSetPinValue>
 44c:	08 95       	ret

0000044e <LED_voidLedInitalaization>:
 44e:	ef 92       	push	r14
 450:	ff 92       	push	r15
 452:	0f 93       	push	r16
 454:	1f 93       	push	r17
 456:	90 e0       	ldi	r25, 0x00	; 0
 458:	8c 01       	movw	r16, r24
 45a:	00 0f       	add	r16, r16
 45c:	11 1f       	adc	r17, r17
 45e:	08 0f       	add	r16, r24
 460:	19 1f       	adc	r17, r25
 462:	0a 53       	subi	r16, 0x3A	; 58
 464:	1f 4f       	sbci	r17, 0xFF	; 255
 466:	f8 01       	movw	r30, r16
 468:	f0 80       	ld	r15, Z
 46a:	e1 80       	ldd	r14, Z+1	; 0x01
 46c:	8f 2d       	mov	r24, r15
 46e:	6e 2d       	mov	r22, r14
 470:	41 e0       	ldi	r20, 0x01	; 1
 472:	0e 94 4b 00 	call	0x96	; 0x96 <DIO_voidSetPinDirection>
 476:	8f 2d       	mov	r24, r15
 478:	6e 2d       	mov	r22, r14
 47a:	f8 01       	movw	r30, r16
 47c:	42 81       	ldd	r20, Z+2	; 0x02
 47e:	0e 94 b0 00 	call	0x160	; 0x160 <DIO_voidSetPinValue>
 482:	1f 91       	pop	r17
 484:	0f 91       	pop	r16
 486:	ff 90       	pop	r15
 488:	ef 90       	pop	r14
 48a:	08 95       	ret

0000048c <LED_voidLedsInitalaization>:
 48c:	cf 93       	push	r28
 48e:	df 93       	push	r29
 490:	c6 ec       	ldi	r28, 0xC6	; 198
 492:	d0 e0       	ldi	r29, 0x00	; 0
 494:	88 81       	ld	r24, Y
 496:	69 81       	ldd	r22, Y+1	; 0x01
 498:	41 e0       	ldi	r20, 0x01	; 1
 49a:	0e 94 4b 00 	call	0x96	; 0x96 <DIO_voidSetPinDirection>
 49e:	23 96       	adiw	r28, 0x03	; 3
 4a0:	80 e0       	ldi	r24, 0x00	; 0
 4a2:	ce 3d       	cpi	r28, 0xDE	; 222
 4a4:	d8 07       	cpc	r29, r24
 4a6:	b1 f7       	brne	.-20     	; 0x494 <LED_voidLedsInitalaization+0x8>
 4a8:	df 91       	pop	r29
 4aa:	cf 91       	pop	r28
 4ac:	08 95       	ret

000004ae <BUTTON_u8ButtonGetValue>:
 4ae:	0f 93       	push	r16
 4b0:	1f 93       	push	r17
 4b2:	90 e0       	ldi	r25, 0x00	; 0
 4b4:	8c 01       	movw	r16, r24
 4b6:	00 0f       	add	r16, r16
 4b8:	11 1f       	adc	r17, r17
 4ba:	08 0f       	add	r16, r24
 4bc:	19 1f       	adc	r17, r25
 4be:	0a 56       	subi	r16, 0x6A	; 106
 4c0:	1f 4f       	sbci	r17, 0xFF	; 255
 4c2:	f8 01       	movw	r30, r16
 4c4:	80 81       	ld	r24, Z
 4c6:	61 81       	ldd	r22, Z+1	; 0x01
 4c8:	0e 94 3b 01 	call	0x276	; 0x276 <DIO_u8GetPinValue>
 4cc:	28 2f       	mov	r18, r24
 4ce:	f8 01       	movw	r30, r16
 4d0:	92 81       	ldd	r25, Z+2	; 0x02
 4d2:	91 30       	cpi	r25, 0x01	; 1
 4d4:	21 f4       	brne	.+8      	; 0x4de <BUTTON_u8ButtonGetValue+0x30>
 4d6:	80 e0       	ldi	r24, 0x00	; 0
 4d8:	22 23       	and	r18, r18
 4da:	49 f4       	brne	.+18     	; 0x4ee <BUTTON_u8ButtonGetValue+0x40>
 4dc:	07 c0       	rjmp	.+14     	; 0x4ec <BUTTON_u8ButtonGetValue+0x3e>
 4de:	99 23       	and	r25, r25
 4e0:	11 f0       	breq	.+4      	; 0x4e6 <BUTTON_u8ButtonGetValue+0x38>
 4e2:	8f ef       	ldi	r24, 0xFF	; 255
 4e4:	04 c0       	rjmp	.+8      	; 0x4ee <BUTTON_u8ButtonGetValue+0x40>
 4e6:	80 e0       	ldi	r24, 0x00	; 0
 4e8:	21 30       	cpi	r18, 0x01	; 1
 4ea:	09 f4       	brne	.+2      	; 0x4ee <BUTTON_u8ButtonGetValue+0x40>
 4ec:	81 e0       	ldi	r24, 0x01	; 1
 4ee:	1f 91       	pop	r17
 4f0:	0f 91       	pop	r16
 4f2:	08 95       	ret

000004f4 <BUTTON_voidButtonInitalaization>:
 4f4:	0f 93       	push	r16
 4f6:	1f 93       	push	r17
 4f8:	90 e0       	ldi	r25, 0x00	; 0
 4fa:	8c 01       	movw	r16, r24
 4fc:	00 0f       	add	r16, r16
 4fe:	11 1f       	adc	r17, r17
 500:	08 0f       	add	r16, r24
 502:	19 1f       	adc	r17, r25
 504:	0a 56       	subi	r16, 0x6A	; 106
 506:	1f 4f       	sbci	r17, 0xFF	; 255
 508:	f8 01       	movw	r30, r16
 50a:	80 81       	ld	r24, Z
 50c:	61 81       	ldd	r22, Z+1	; 0x01
 50e:	40 e0       	ldi	r20, 0x00	; 0
 510:	0e 94 4b 00 	call	0x96	; 0x96 <DIO_voidSetPinDirection>
 514:	f8 01       	movw	r30, r16
 516:	80 81       	ld	r24, Z
 518:	61 81       	ldd	r22, Z+1	; 0x01
 51a:	42 81       	ldd	r20, Z+2	; 0x02
 51c:	0e 94 b0 00 	call	0x160	; 0x160 <DIO_voidSetPinValue>
 520:	1f 91       	pop	r17
 522:	0f 91       	pop	r16
 524:	08 95       	ret

00000526 <BUTTON_voidButtonsInitalaization>:
 526:	cf 93       	push	r28
 528:	df 93       	push	r29
 52a:	c6 e9       	ldi	r28, 0x96	; 150
 52c:	d0 e0       	ldi	r29, 0x00	; 0
 52e:	88 81       	ld	r24, Y
 530:	69 81       	ldd	r22, Y+1	; 0x01
 532:	40 e0       	ldi	r20, 0x00	; 0
 534:	0e 94 4b 00 	call	0x96	; 0x96 <DIO_voidSetPinDirection>
 538:	88 81       	ld	r24, Y
 53a:	69 81       	ldd	r22, Y+1	; 0x01
 53c:	4a 81       	ldd	r20, Y+2	; 0x02
 53e:	0e 94 b0 00 	call	0x160	; 0x160 <DIO_voidSetPinValue>
 542:	23 96       	adiw	r28, 0x03	; 3
 544:	80 e0       	ldi	r24, 0x00	; 0
 546:	ce 3a       	cpi	r28, 0xAE	; 174
 548:	d8 07       	cpc	r29, r24
 54a:	89 f7       	brne	.-30     	; 0x52e <BUTTON_voidButtonsInitalaization+0x8>
 54c:	df 91       	pop	r29
 54e:	cf 91       	pop	r28
 550:	08 95       	ret

00000552 <main>:
 552:	cf 93       	push	r28
 554:	df 93       	push	r29
 556:	80 e0       	ldi	r24, 0x00	; 0
 558:	0e 94 f8 01 	call	0x3f0	; 0x3f0 <SSD_voidSsdInitalization>
 55c:	80 e0       	ldi	r24, 0x00	; 0
 55e:	0e 94 9d 01 	call	0x33a	; 0x33a <SSD_voidSsdTurnOn>
 562:	80 e0       	ldi	r24, 0x00	; 0
 564:	64 e0       	ldi	r22, 0x04	; 4
 566:	0e 94 6f 01 	call	0x2de	; 0x2de <SSD_voidSsdSetPin>
 56a:	c8 ec       	ldi	r28, 0xC8	; 200
 56c:	d0 e0       	ldi	r29, 0x00	; 0
 56e:	80 e0       	ldi	r24, 0x00	; 0
 570:	0e 94 9d 01 	call	0x33a	; 0x33a <SSD_voidSsdTurnOn>
 574:	80 e0       	ldi	r24, 0x00	; 0
 576:	60 e0       	ldi	r22, 0x00	; 0
 578:	0e 94 6f 01 	call	0x2de	; 0x2de <SSD_voidSsdSetPin>
 57c:	8e e5       	ldi	r24, 0x5E	; 94
 57e:	91 e0       	ldi	r25, 0x01	; 1
 580:	fe 01       	movw	r30, r28
 582:	31 97       	sbiw	r30, 0x01	; 1
 584:	f1 f7       	brne	.-4      	; 0x582 <main+0x30>
 586:	01 97       	sbiw	r24, 0x01	; 1
 588:	d9 f7       	brne	.-10     	; 0x580 <main+0x2e>
 58a:	80 e0       	ldi	r24, 0x00	; 0
 58c:	61 e0       	ldi	r22, 0x01	; 1
 58e:	0e 94 6f 01 	call	0x2de	; 0x2de <SSD_voidSsdSetPin>
 592:	8e e5       	ldi	r24, 0x5E	; 94
 594:	91 e0       	ldi	r25, 0x01	; 1
 596:	fe 01       	movw	r30, r28
 598:	31 97       	sbiw	r30, 0x01	; 1
 59a:	f1 f7       	brne	.-4      	; 0x598 <main+0x46>
 59c:	01 97       	sbiw	r24, 0x01	; 1
 59e:	d9 f7       	brne	.-10     	; 0x596 <main+0x44>
 5a0:	80 e0       	ldi	r24, 0x00	; 0
 5a2:	62 e0       	ldi	r22, 0x02	; 2
 5a4:	0e 94 6f 01 	call	0x2de	; 0x2de <SSD_voidSsdSetPin>
 5a8:	8e e5       	ldi	r24, 0x5E	; 94
 5aa:	91 e0       	ldi	r25, 0x01	; 1
 5ac:	fe 01       	movw	r30, r28
 5ae:	31 97       	sbiw	r30, 0x01	; 1
 5b0:	f1 f7       	brne	.-4      	; 0x5ae <main+0x5c>
 5b2:	01 97       	sbiw	r24, 0x01	; 1
 5b4:	d9 f7       	brne	.-10     	; 0x5ac <main+0x5a>
 5b6:	80 e0       	ldi	r24, 0x00	; 0
 5b8:	63 e0       	ldi	r22, 0x03	; 3
 5ba:	0e 94 6f 01 	call	0x2de	; 0x2de <SSD_voidSsdSetPin>
 5be:	8e e5       	ldi	r24, 0x5E	; 94
 5c0:	91 e0       	ldi	r25, 0x01	; 1
 5c2:	fe 01       	movw	r30, r28
 5c4:	31 97       	sbiw	r30, 0x01	; 1
 5c6:	f1 f7       	brne	.-4      	; 0x5c4 <main+0x72>
 5c8:	01 97       	sbiw	r24, 0x01	; 1
 5ca:	d9 f7       	brne	.-10     	; 0x5c2 <main+0x70>
 5cc:	80 e0       	ldi	r24, 0x00	; 0
 5ce:	64 e0       	ldi	r22, 0x04	; 4
 5d0:	0e 94 6f 01 	call	0x2de	; 0x2de <SSD_voidSsdSetPin>
 5d4:	8e e5       	ldi	r24, 0x5E	; 94
 5d6:	91 e0       	ldi	r25, 0x01	; 1
 5d8:	fe 01       	movw	r30, r28
 5da:	31 97       	sbiw	r30, 0x01	; 1
 5dc:	f1 f7       	brne	.-4      	; 0x5da <main+0x88>
 5de:	01 97       	sbiw	r24, 0x01	; 1
 5e0:	d9 f7       	brne	.-10     	; 0x5d8 <main+0x86>
 5e2:	80 e0       	ldi	r24, 0x00	; 0
 5e4:	65 e0       	ldi	r22, 0x05	; 5
 5e6:	0e 94 6f 01 	call	0x2de	; 0x2de <SSD_voidSsdSetPin>
 5ea:	8e e5       	ldi	r24, 0x5E	; 94
 5ec:	91 e0       	ldi	r25, 0x01	; 1
 5ee:	fe 01       	movw	r30, r28
 5f0:	31 97       	sbiw	r30, 0x01	; 1
 5f2:	f1 f7       	brne	.-4      	; 0x5f0 <main+0x9e>
 5f4:	01 97       	sbiw	r24, 0x01	; 1
 5f6:	d9 f7       	brne	.-10     	; 0x5ee <main+0x9c>
 5f8:	80 e0       	ldi	r24, 0x00	; 0
 5fa:	0e 94 6e 01 	call	0x2dc	; 0x2dc <SSD_voidSsdTurnOff>
 5fe:	88 e8       	ldi	r24, 0x88	; 136
 600:	93 e1       	ldi	r25, 0x13	; 19
 602:	fe 01       	movw	r30, r28
 604:	31 97       	sbiw	r30, 0x01	; 1
 606:	f1 f7       	brne	.-4      	; 0x604 <main+0xb2>
 608:	01 97       	sbiw	r24, 0x01	; 1
 60a:	d9 f7       	brne	.-10     	; 0x602 <main+0xb0>
 60c:	b0 cf       	rjmp	.-160    	; 0x56e <main+0x1c>

0000060e <_exit>:
 60e:	f8 94       	cli

00000610 <__stop_program>:
 610:	ff cf       	rjmp	.-2      	; 0x610 <__stop_program>
