
ATmega32_Drivers.elf:     file format elf32-avr

Sections:
Idx Name          Size      VMA       LMA       File off  Algn
  0 .text         00001022  00000000  00000000  00000094  2**1
                  CONTENTS, ALLOC, LOAD, READONLY, CODE
  1 .data         000000f2  00800060  00001022  000010b6  2**0
                  CONTENTS, ALLOC, LOAD, DATA
  2 .bss          00000030  00800152  00800152  000011a8  2**0
                  ALLOC

Disassembly of section .text:

00000000 <__vectors>:
       0:	0c 94 2a 00 	jmp	0x54	; 0x54 <__ctors_end>
       4:	0c 94 47 00 	jmp	0x8e	; 0x8e <__bad_interrupt>
       8:	0c 94 47 00 	jmp	0x8e	; 0x8e <__bad_interrupt>
       c:	0c 94 47 00 	jmp	0x8e	; 0x8e <__bad_interrupt>
      10:	0c 94 47 00 	jmp	0x8e	; 0x8e <__bad_interrupt>
      14:	0c 94 47 00 	jmp	0x8e	; 0x8e <__bad_interrupt>
      18:	0c 94 47 00 	jmp	0x8e	; 0x8e <__bad_interrupt>
      1c:	0c 94 47 00 	jmp	0x8e	; 0x8e <__bad_interrupt>
      20:	0c 94 47 00 	jmp	0x8e	; 0x8e <__bad_interrupt>
      24:	0c 94 47 00 	jmp	0x8e	; 0x8e <__bad_interrupt>
      28:	0c 94 47 00 	jmp	0x8e	; 0x8e <__bad_interrupt>
      2c:	0c 94 47 00 	jmp	0x8e	; 0x8e <__bad_interrupt>
      30:	0c 94 47 00 	jmp	0x8e	; 0x8e <__bad_interrupt>
      34:	0c 94 47 00 	jmp	0x8e	; 0x8e <__bad_interrupt>
      38:	0c 94 47 00 	jmp	0x8e	; 0x8e <__bad_interrupt>
      3c:	0c 94 47 00 	jmp	0x8e	; 0x8e <__bad_interrupt>
      40:	0c 94 47 00 	jmp	0x8e	; 0x8e <__bad_interrupt>
      44:	0c 94 47 00 	jmp	0x8e	; 0x8e <__bad_interrupt>
      48:	0c 94 47 00 	jmp	0x8e	; 0x8e <__bad_interrupt>
      4c:	0c 94 47 00 	jmp	0x8e	; 0x8e <__bad_interrupt>
      50:	0c 94 47 00 	jmp	0x8e	; 0x8e <__bad_interrupt>

00000054 <__ctors_end>:
      54:	11 24       	eor	r1, r1
      56:	1f be       	out	0x3f, r1	; 63
      58:	cf e5       	ldi	r28, 0x5F	; 95
      5a:	d8 e0       	ldi	r29, 0x08	; 8
      5c:	de bf       	out	0x3e, r29	; 62
      5e:	cd bf       	out	0x3d, r28	; 61

00000060 <__do_copy_data>:
      60:	11 e0       	ldi	r17, 0x01	; 1
      62:	a0 e6       	ldi	r26, 0x60	; 96
      64:	b0 e0       	ldi	r27, 0x00	; 0
      66:	e2 e2       	ldi	r30, 0x22	; 34
      68:	f0 e1       	ldi	r31, 0x10	; 16
      6a:	02 c0       	rjmp	.+4      	; 0x70 <.do_copy_data_start>

0000006c <.do_copy_data_loop>:
      6c:	05 90       	lpm	r0, Z+
      6e:	0d 92       	st	X+, r0

00000070 <.do_copy_data_start>:
      70:	a2 35       	cpi	r26, 0x52	; 82
      72:	b1 07       	cpc	r27, r17
      74:	d9 f7       	brne	.-10     	; 0x6c <.do_copy_data_loop>

00000076 <__do_clear_bss>:
      76:	11 e0       	ldi	r17, 0x01	; 1
      78:	a2 e5       	ldi	r26, 0x52	; 82
      7a:	b1 e0       	ldi	r27, 0x01	; 1
      7c:	01 c0       	rjmp	.+2      	; 0x80 <.do_clear_bss_start>

0000007e <.do_clear_bss_loop>:
      7e:	1d 92       	st	X+, r1

00000080 <.do_clear_bss_start>:
      80:	a2 38       	cpi	r26, 0x82	; 130
      82:	b1 07       	cpc	r27, r17
      84:	e1 f7       	brne	.-8      	; 0x7e <.do_clear_bss_loop>
      86:	0e 94 c8 07 	call	0xf90	; 0xf90 <main>
      8a:	0c 94 0f 08 	jmp	0x101e	; 0x101e <_exit>

0000008e <__bad_interrupt>:
      8e:	0c 94 00 00 	jmp	0	; 0x0 <__vectors>

00000092 <DIO_voidDioInitialization>:
      92:	08 95       	ret

00000094 <DIO_voidDioReset>:
      94:	08 95       	ret

00000096 <DIO_voidSetPinDirection>:
      96:	84 30       	cpi	r24, 0x04	; 4
      98:	08 f0       	brcs	.+2      	; 0x9c <DIO_voidSetPinDirection+0x6>
      9a:	61 c0       	rjmp	.+194    	; 0x15e <DIO_voidSetPinDirection+0xc8>
      9c:	68 30       	cpi	r22, 0x08	; 8
      9e:	08 f0       	brcs	.+2      	; 0xa2 <DIO_voidSetPinDirection+0xc>
      a0:	5e c0       	rjmp	.+188    	; 0x15e <DIO_voidSetPinDirection+0xc8>
      a2:	81 30       	cpi	r24, 0x01	; 1
      a4:	f1 f0       	breq	.+60     	; 0xe2 <DIO_voidSetPinDirection+0x4c>
      a6:	81 30       	cpi	r24, 0x01	; 1
      a8:	38 f0       	brcs	.+14     	; 0xb8 <DIO_voidSetPinDirection+0x22>
      aa:	82 30       	cpi	r24, 0x02	; 2
      ac:	09 f4       	brne	.+2      	; 0xb0 <DIO_voidSetPinDirection+0x1a>
      ae:	43 c0       	rjmp	.+134    	; 0x136 <DIO_voidSetPinDirection+0xa0>
      b0:	83 30       	cpi	r24, 0x03	; 3
      b2:	09 f0       	breq	.+2      	; 0xb6 <DIO_voidSetPinDirection+0x20>
      b4:	54 c0       	rjmp	.+168    	; 0x15e <DIO_voidSetPinDirection+0xc8>
      b6:	2a c0       	rjmp	.+84     	; 0x10c <DIO_voidSetPinDirection+0x76>
      b8:	8a b3       	in	r24, 0x1a	; 26
      ba:	21 e0       	ldi	r18, 0x01	; 1
      bc:	30 e0       	ldi	r19, 0x00	; 0
      be:	06 2e       	mov	r0, r22
      c0:	02 c0       	rjmp	.+4      	; 0xc6 <DIO_voidSetPinDirection+0x30>
      c2:	22 0f       	add	r18, r18
      c4:	33 1f       	adc	r19, r19
      c6:	0a 94       	dec	r0
      c8:	e2 f7       	brpl	.-8      	; 0xc2 <DIO_voidSetPinDirection+0x2c>
      ca:	20 95       	com	r18
      cc:	28 23       	and	r18, r24
      ce:	84 2f       	mov	r24, r20
      d0:	90 e0       	ldi	r25, 0x00	; 0
      d2:	02 c0       	rjmp	.+4      	; 0xd8 <DIO_voidSetPinDirection+0x42>
      d4:	88 0f       	add	r24, r24
      d6:	99 1f       	adc	r25, r25
      d8:	6a 95       	dec	r22
      da:	e2 f7       	brpl	.-8      	; 0xd4 <DIO_voidSetPinDirection+0x3e>
      dc:	28 2b       	or	r18, r24
      de:	2a bb       	out	0x1a, r18	; 26
      e0:	08 95       	ret
      e2:	87 b3       	in	r24, 0x17	; 23
      e4:	21 e0       	ldi	r18, 0x01	; 1
      e6:	30 e0       	ldi	r19, 0x00	; 0
      e8:	06 2e       	mov	r0, r22
      ea:	02 c0       	rjmp	.+4      	; 0xf0 <DIO_voidSetPinDirection+0x5a>
      ec:	22 0f       	add	r18, r18
      ee:	33 1f       	adc	r19, r19
      f0:	0a 94       	dec	r0
      f2:	e2 f7       	brpl	.-8      	; 0xec <DIO_voidSetPinDirection+0x56>
      f4:	20 95       	com	r18
      f6:	28 23       	and	r18, r24
      f8:	84 2f       	mov	r24, r20
      fa:	90 e0       	ldi	r25, 0x00	; 0
      fc:	02 c0       	rjmp	.+4      	; 0x102 <DIO_voidSetPinDirection+0x6c>
      fe:	88 0f       	add	r24, r24
     100:	99 1f       	adc	r25, r25
     102:	6a 95       	dec	r22
     104:	e2 f7       	brpl	.-8      	; 0xfe <DIO_voidSetPinDirection+0x68>
     106:	28 2b       	or	r18, r24
     108:	27 bb       	out	0x17, r18	; 23
     10a:	08 95       	ret
     10c:	84 b3       	in	r24, 0x14	; 20
     10e:	21 e0       	ldi	r18, 0x01	; 1
     110:	30 e0       	ldi	r19, 0x00	; 0
     112:	06 2e       	mov	r0, r22
     114:	02 c0       	rjmp	.+4      	; 0x11a <DIO_voidSetPinDirection+0x84>
     116:	22 0f       	add	r18, r18
     118:	33 1f       	adc	r19, r19
     11a:	0a 94       	dec	r0
     11c:	e2 f7       	brpl	.-8      	; 0x116 <DIO_voidSetPinDirection+0x80>
     11e:	20 95       	com	r18
     120:	28 23       	and	r18, r24
     122:	84 2f       	mov	r24, r20
     124:	90 e0       	ldi	r25, 0x00	; 0
     126:	02 c0       	rjmp	.+4      	; 0x12c <DIO_voidSetPinDirection+0x96>
     128:	88 0f       	add	r24, r24
     12a:	99 1f       	adc	r25, r25
     12c:	6a 95       	dec	r22
     12e:	e2 f7       	brpl	.-8      	; 0x128 <DIO_voidSetPinDirection+0x92>
     130:	28 2b       	or	r18, r24
     132:	24 bb       	out	0x14, r18	; 20
     134:	08 95       	ret
     136:	81 b3       	in	r24, 0x11	; 17
     138:	21 e0       	ldi	r18, 0x01	; 1
     13a:	30 e0       	ldi	r19, 0x00	; 0
     13c:	06 2e       	mov	r0, r22
     13e:	02 c0       	rjmp	.+4      	; 0x144 <DIO_voidSetPinDirection+0xae>
     140:	22 0f       	add	r18, r18
     142:	33 1f       	adc	r19, r19
     144:	0a 94       	dec	r0
     146:	e2 f7       	brpl	.-8      	; 0x140 <DIO_voidSetPinDirection+0xaa>
     148:	20 95       	com	r18
     14a:	28 23       	and	r18, r24
     14c:	84 2f       	mov	r24, r20
     14e:	90 e0       	ldi	r25, 0x00	; 0
     150:	02 c0       	rjmp	.+4      	; 0x156 <DIO_voidSetPinDirection+0xc0>
     152:	88 0f       	add	r24, r24
     154:	99 1f       	adc	r25, r25
     156:	6a 95       	dec	r22
     158:	e2 f7       	brpl	.-8      	; 0x152 <DIO_voidSetPinDirection+0xbc>
     15a:	28 2b       	or	r18, r24
     15c:	21 bb       	out	0x11, r18	; 17
     15e:	08 95       	ret

00000160 <DIO_voidSetPinValue>:
     160:	84 30       	cpi	r24, 0x04	; 4
     162:	08 f0       	brcs	.+2      	; 0x166 <DIO_voidSetPinValue+0x6>
     164:	61 c0       	rjmp	.+194    	; 0x228 <DIO_voidSetPinValue+0xc8>
     166:	68 30       	cpi	r22, 0x08	; 8
     168:	08 f0       	brcs	.+2      	; 0x16c <DIO_voidSetPinValue+0xc>
     16a:	5e c0       	rjmp	.+188    	; 0x228 <DIO_voidSetPinValue+0xc8>
     16c:	81 30       	cpi	r24, 0x01	; 1
     16e:	f1 f0       	breq	.+60     	; 0x1ac <DIO_voidSetPinValue+0x4c>
     170:	81 30       	cpi	r24, 0x01	; 1
     172:	38 f0       	brcs	.+14     	; 0x182 <DIO_voidSetPinValue+0x22>
     174:	82 30       	cpi	r24, 0x02	; 2
     176:	09 f4       	brne	.+2      	; 0x17a <DIO_voidSetPinValue+0x1a>
     178:	43 c0       	rjmp	.+134    	; 0x200 <DIO_voidSetPinValue+0xa0>
     17a:	83 30       	cpi	r24, 0x03	; 3
     17c:	09 f0       	breq	.+2      	; 0x180 <DIO_voidSetPinValue+0x20>
     17e:	54 c0       	rjmp	.+168    	; 0x228 <DIO_voidSetPinValue+0xc8>
     180:	2a c0       	rjmp	.+84     	; 0x1d6 <DIO_voidSetPinValue+0x76>
     182:	8b b3       	in	r24, 0x1b	; 27
     184:	21 e0       	ldi	r18, 0x01	; 1
     186:	30 e0       	ldi	r19, 0x00	; 0
     188:	06 2e       	mov	r0, r22
     18a:	02 c0       	rjmp	.+4      	; 0x190 <DIO_voidSetPinValue+0x30>
     18c:	22 0f       	add	r18, r18
     18e:	33 1f       	adc	r19, r19
     190:	0a 94       	dec	r0
     192:	e2 f7       	brpl	.-8      	; 0x18c <DIO_voidSetPinValue+0x2c>
     194:	20 95       	com	r18
     196:	28 23       	and	r18, r24
     198:	84 2f       	mov	r24, r20
     19a:	90 e0       	ldi	r25, 0x00	; 0
     19c:	02 c0       	rjmp	.+4      	; 0x1a2 <DIO_voidSetPinValue+0x42>
     19e:	88 0f       	add	r24, r24
     1a0:	99 1f       	adc	r25, r25
     1a2:	6a 95       	dec	r22
     1a4:	e2 f7       	brpl	.-8      	; 0x19e <DIO_voidSetPinValue+0x3e>
     1a6:	28 2b       	or	r18, r24
     1a8:	2b bb       	out	0x1b, r18	; 27
     1aa:	08 95       	ret
     1ac:	88 b3       	in	r24, 0x18	; 24
     1ae:	21 e0       	ldi	r18, 0x01	; 1
     1b0:	30 e0       	ldi	r19, 0x00	; 0
     1b2:	06 2e       	mov	r0, r22
     1b4:	02 c0       	rjmp	.+4      	; 0x1ba <DIO_voidSetPinValue+0x5a>
     1b6:	22 0f       	add	r18, r18
     1b8:	33 1f       	adc	r19, r19
     1ba:	0a 94       	dec	r0
     1bc:	e2 f7       	brpl	.-8      	; 0x1b6 <DIO_voidSetPinValue+0x56>
     1be:	20 95       	com	r18
     1c0:	28 23       	and	r18, r24
     1c2:	84 2f       	mov	r24, r20
     1c4:	90 e0       	ldi	r25, 0x00	; 0
     1c6:	02 c0       	rjmp	.+4      	; 0x1cc <DIO_voidSetPinValue+0x6c>
     1c8:	88 0f       	add	r24, r24
     1ca:	99 1f       	adc	r25, r25
     1cc:	6a 95       	dec	r22
     1ce:	e2 f7       	brpl	.-8      	; 0x1c8 <DIO_voidSetPinValue+0x68>
     1d0:	28 2b       	or	r18, r24
     1d2:	28 bb       	out	0x18, r18	; 24
     1d4:	08 95       	ret
     1d6:	85 b3       	in	r24, 0x15	; 21
     1d8:	21 e0       	ldi	r18, 0x01	; 1
     1da:	30 e0       	ldi	r19, 0x00	; 0
     1dc:	06 2e       	mov	r0, r22
     1de:	02 c0       	rjmp	.+4      	; 0x1e4 <DIO_voidSetPinValue+0x84>
     1e0:	22 0f       	add	r18, r18
     1e2:	33 1f       	adc	r19, r19
     1e4:	0a 94       	dec	r0
     1e6:	e2 f7       	brpl	.-8      	; 0x1e0 <DIO_voidSetPinValue+0x80>
     1e8:	20 95       	com	r18
     1ea:	28 23       	and	r18, r24
     1ec:	84 2f       	mov	r24, r20
     1ee:	90 e0       	ldi	r25, 0x00	; 0
     1f0:	02 c0       	rjmp	.+4      	; 0x1f6 <DIO_voidSetPinValue+0x96>
     1f2:	88 0f       	add	r24, r24
     1f4:	99 1f       	adc	r25, r25
     1f6:	6a 95       	dec	r22
     1f8:	e2 f7       	brpl	.-8      	; 0x1f2 <DIO_voidSetPinValue+0x92>
     1fa:	28 2b       	or	r18, r24
     1fc:	25 bb       	out	0x15, r18	; 21
     1fe:	08 95       	ret
     200:	82 b3       	in	r24, 0x12	; 18
     202:	21 e0       	ldi	r18, 0x01	; 1
     204:	30 e0       	ldi	r19, 0x00	; 0
     206:	06 2e       	mov	r0, r22
     208:	02 c0       	rjmp	.+4      	; 0x20e <DIO_voidSetPinValue+0xae>
     20a:	22 0f       	add	r18, r18
     20c:	33 1f       	adc	r19, r19
     20e:	0a 94       	dec	r0
     210:	e2 f7       	brpl	.-8      	; 0x20a <DIO_voidSetPinValue+0xaa>
     212:	20 95       	com	r18
     214:	28 23       	and	r18, r24
     216:	84 2f       	mov	r24, r20
     218:	90 e0       	ldi	r25, 0x00	; 0
     21a:	02 c0       	rjmp	.+4      	; 0x220 <DIO_voidSetPinValue+0xc0>
     21c:	88 0f       	add	r24, r24
     21e:	99 1f       	adc	r25, r25
     220:	6a 95       	dec	r22
     222:	e2 f7       	brpl	.-8      	; 0x21c <DIO_voidSetPinValue+0xbc>
     224:	28 2b       	or	r18, r24
     226:	22 bb       	out	0x12, r18	; 18
     228:	08 95       	ret

0000022a <DIO_voidSetRegisterDirection>:
     22a:	84 30       	cpi	r24, 0x04	; 4
     22c:	80 f4       	brcc	.+32     	; 0x24e <DIO_voidSetRegisterDirection+0x24>
     22e:	81 30       	cpi	r24, 0x01	; 1
     230:	49 f0       	breq	.+18     	; 0x244 <DIO_voidSetRegisterDirection+0x1a>
     232:	81 30       	cpi	r24, 0x01	; 1
     234:	28 f0       	brcs	.+10     	; 0x240 <DIO_voidSetRegisterDirection+0x16>
     236:	82 30       	cpi	r24, 0x02	; 2
     238:	49 f0       	breq	.+18     	; 0x24c <DIO_voidSetRegisterDirection+0x22>
     23a:	83 30       	cpi	r24, 0x03	; 3
     23c:	41 f4       	brne	.+16     	; 0x24e <DIO_voidSetRegisterDirection+0x24>
     23e:	04 c0       	rjmp	.+8      	; 0x248 <DIO_voidSetRegisterDirection+0x1e>
     240:	6a bb       	out	0x1a, r22	; 26
     242:	08 95       	ret
     244:	67 bb       	out	0x17, r22	; 23
     246:	08 95       	ret
     248:	64 bb       	out	0x14, r22	; 20
     24a:	08 95       	ret
     24c:	61 bb       	out	0x11, r22	; 17
     24e:	08 95       	ret

00000250 <DIO_voidSetRegisterValue>:
     250:	84 30       	cpi	r24, 0x04	; 4
     252:	80 f4       	brcc	.+32     	; 0x274 <DIO_voidSetRegisterValue+0x24>
     254:	81 30       	cpi	r24, 0x01	; 1
     256:	49 f0       	breq	.+18     	; 0x26a <DIO_voidSetRegisterValue+0x1a>
     258:	81 30       	cpi	r24, 0x01	; 1
     25a:	28 f0       	brcs	.+10     	; 0x266 <DIO_voidSetRegisterValue+0x16>
     25c:	82 30       	cpi	r24, 0x02	; 2
     25e:	49 f0       	breq	.+18     	; 0x272 <DIO_voidSetRegisterValue+0x22>
     260:	83 30       	cpi	r24, 0x03	; 3
     262:	41 f4       	brne	.+16     	; 0x274 <DIO_voidSetRegisterValue+0x24>
     264:	04 c0       	rjmp	.+8      	; 0x26e <DIO_voidSetRegisterValue+0x1e>
     266:	6b bb       	out	0x1b, r22	; 27
     268:	08 95       	ret
     26a:	68 bb       	out	0x18, r22	; 24
     26c:	08 95       	ret
     26e:	65 bb       	out	0x15, r22	; 21
     270:	08 95       	ret
     272:	62 bb       	out	0x12, r22	; 18
     274:	08 95       	ret

00000276 <DIO_u8GetPinValue>:
     276:	84 30       	cpi	r24, 0x04	; 4
     278:	c8 f4       	brcc	.+50     	; 0x2ac <DIO_u8GetPinValue+0x36>
     27a:	81 30       	cpi	r24, 0x01	; 1
     27c:	49 f0       	breq	.+18     	; 0x290 <DIO_u8GetPinValue+0x1a>
     27e:	81 30       	cpi	r24, 0x01	; 1
     280:	28 f0       	brcs	.+10     	; 0x28c <DIO_u8GetPinValue+0x16>
     282:	82 30       	cpi	r24, 0x02	; 2
     284:	89 f0       	breq	.+34     	; 0x2a8 <DIO_u8GetPinValue+0x32>
     286:	83 30       	cpi	r24, 0x03	; 3
     288:	89 f4       	brne	.+34     	; 0x2ac <DIO_u8GetPinValue+0x36>
     28a:	04 c0       	rjmp	.+8      	; 0x294 <DIO_u8GetPinValue+0x1e>
     28c:	29 b3       	in	r18, 0x19	; 25
     28e:	03 c0       	rjmp	.+6      	; 0x296 <DIO_u8GetPinValue+0x20>
     290:	26 b3       	in	r18, 0x16	; 22
     292:	01 c0       	rjmp	.+2      	; 0x296 <DIO_u8GetPinValue+0x20>
     294:	23 b3       	in	r18, 0x13	; 19
     296:	81 e0       	ldi	r24, 0x01	; 1
     298:	90 e0       	ldi	r25, 0x00	; 0
     29a:	02 c0       	rjmp	.+4      	; 0x2a0 <DIO_u8GetPinValue+0x2a>
     29c:	88 0f       	add	r24, r24
     29e:	99 1f       	adc	r25, r25
     2a0:	6a 95       	dec	r22
     2a2:	e2 f7       	brpl	.-8      	; 0x29c <DIO_u8GetPinValue+0x26>
     2a4:	28 23       	and	r18, r24
     2a6:	03 c0       	rjmp	.+6      	; 0x2ae <DIO_u8GetPinValue+0x38>
     2a8:	20 b3       	in	r18, 0x10	; 16
     2aa:	f5 cf       	rjmp	.-22     	; 0x296 <DIO_u8GetPinValue+0x20>
     2ac:	20 e0       	ldi	r18, 0x00	; 0
     2ae:	82 2f       	mov	r24, r18
     2b0:	08 95       	ret

000002b2 <DIO_u8GetRegisterValue>:
     2b2:	84 30       	cpi	r24, 0x04	; 4
     2b4:	88 f4       	brcc	.+34     	; 0x2d8 <DIO_u8GetRegisterValue+0x26>
     2b6:	81 30       	cpi	r24, 0x01	; 1
     2b8:	49 f0       	breq	.+18     	; 0x2cc <DIO_u8GetRegisterValue+0x1a>
     2ba:	81 30       	cpi	r24, 0x01	; 1
     2bc:	28 f0       	brcs	.+10     	; 0x2c8 <DIO_u8GetRegisterValue+0x16>
     2be:	82 30       	cpi	r24, 0x02	; 2
     2c0:	49 f0       	breq	.+18     	; 0x2d4 <DIO_u8GetRegisterValue+0x22>
     2c2:	83 30       	cpi	r24, 0x03	; 3
     2c4:	49 f4       	brne	.+18     	; 0x2d8 <DIO_u8GetRegisterValue+0x26>
     2c6:	04 c0       	rjmp	.+8      	; 0x2d0 <DIO_u8GetRegisterValue+0x1e>
     2c8:	89 b3       	in	r24, 0x19	; 25
     2ca:	08 95       	ret
     2cc:	86 b3       	in	r24, 0x16	; 22
     2ce:	08 95       	ret
     2d0:	83 b3       	in	r24, 0x13	; 19
     2d2:	08 95       	ret
     2d4:	80 b3       	in	r24, 0x10	; 16
     2d6:	08 95       	ret
     2d8:	80 e0       	ldi	r24, 0x00	; 0
     2da:	08 95       	ret

000002dc <SSD_voidSsdSetPin>:
     2dc:	88 23       	and	r24, r24
     2de:	19 f0       	breq	.+6      	; 0x2e6 <SSD_voidSsdSetPin+0xa>
     2e0:	81 30       	cpi	r24, 0x01	; 1
     2e2:	91 f4       	brne	.+36     	; 0x308 <SSD_voidSsdSetPin+0x2c>
     2e4:	09 c0       	rjmp	.+18     	; 0x2f8 <SSD_voidSsdSetPin+0x1c>
     2e6:	e6 2f       	mov	r30, r22
     2e8:	f0 e0       	ldi	r31, 0x00	; 0
     2ea:	e9 5f       	subi	r30, 0xF9	; 249
     2ec:	fe 4f       	sbci	r31, 0xFE	; 254
     2ee:	81 e0       	ldi	r24, 0x01	; 1
     2f0:	60 81       	ld	r22, Z
     2f2:	0e 94 28 01 	call	0x250	; 0x250 <DIO_voidSetRegisterValue>
     2f6:	08 95       	ret
     2f8:	e6 2f       	mov	r30, r22
     2fa:	f0 e0       	ldi	r31, 0x00	; 0
     2fc:	e9 5f       	subi	r30, 0xF9	; 249
     2fe:	fe 4f       	sbci	r31, 0xFE	; 254
     300:	81 e0       	ldi	r24, 0x01	; 1
     302:	60 81       	ld	r22, Z
     304:	0e 94 28 01 	call	0x250	; 0x250 <DIO_voidSetRegisterValue>
     308:	08 95       	ret

0000030a <SSD_voidSsdSetNumber>:
     30a:	88 23       	and	r24, r24
     30c:	19 f0       	breq	.+6      	; 0x314 <SSD_voidSsdSetNumber+0xa>
     30e:	81 30       	cpi	r24, 0x01	; 1
     310:	91 f4       	brne	.+36     	; 0x336 <SSD_voidSsdSetNumber+0x2c>
     312:	09 c0       	rjmp	.+18     	; 0x326 <SSD_voidSsdSetNumber+0x1c>
     314:	e6 2f       	mov	r30, r22
     316:	f0 e0       	ldi	r31, 0x00	; 0
     318:	e1 5f       	subi	r30, 0xF1	; 241
     31a:	fe 4f       	sbci	r31, 0xFE	; 254
     31c:	81 e0       	ldi	r24, 0x01	; 1
     31e:	60 81       	ld	r22, Z
     320:	0e 94 28 01 	call	0x250	; 0x250 <DIO_voidSetRegisterValue>
     324:	08 95       	ret
     326:	e6 2f       	mov	r30, r22
     328:	f0 e0       	ldi	r31, 0x00	; 0
     32a:	e1 5f       	subi	r30, 0xF1	; 241
     32c:	fe 4f       	sbci	r31, 0xFE	; 254
     32e:	81 e0       	ldi	r24, 0x01	; 1
     330:	60 81       	ld	r22, Z
     332:	0e 94 28 01 	call	0x250	; 0x250 <DIO_voidSetRegisterValue>
     336:	08 95       	ret

00000338 <SSD_voidSsdTurnOff>:
     338:	88 23       	and	r24, r24
     33a:	19 f0       	breq	.+6      	; 0x342 <SSD_voidSsdTurnOff+0xa>
     33c:	81 30       	cpi	r24, 0x01	; 1
     33e:	81 f4       	brne	.+32     	; 0x360 <SSD_voidSsdTurnOff+0x28>
     340:	08 c0       	rjmp	.+16     	; 0x352 <SSD_voidSsdTurnOff+0x1a>
     342:	80 91 aa 00 	lds	r24, 0x00AA
     346:	60 91 ab 00 	lds	r22, 0x00AB
     34a:	41 e0       	ldi	r20, 0x01	; 1
     34c:	0e 94 b0 00 	call	0x160	; 0x160 <DIO_voidSetPinValue>
     350:	08 95       	ret
     352:	80 91 c5 00 	lds	r24, 0x00C5
     356:	60 91 c6 00 	lds	r22, 0x00C6
     35a:	41 e0       	ldi	r20, 0x01	; 1
     35c:	0e 94 b0 00 	call	0x160	; 0x160 <DIO_voidSetPinValue>
     360:	08 95       	ret

00000362 <SSD_voidSsdTurnOn>:
     362:	88 23       	and	r24, r24
     364:	19 f0       	breq	.+6      	; 0x36c <SSD_voidSsdTurnOn+0xa>
     366:	81 30       	cpi	r24, 0x01	; 1
     368:	81 f4       	brne	.+32     	; 0x38a <SSD_voidSsdTurnOn+0x28>
     36a:	08 c0       	rjmp	.+16     	; 0x37c <SSD_voidSsdTurnOn+0x1a>
     36c:	80 91 aa 00 	lds	r24, 0x00AA
     370:	60 91 ab 00 	lds	r22, 0x00AB
     374:	40 e0       	ldi	r20, 0x00	; 0
     376:	0e 94 b0 00 	call	0x160	; 0x160 <DIO_voidSetPinValue>
     37a:	08 95       	ret
     37c:	80 91 c5 00 	lds	r24, 0x00C5
     380:	60 91 c6 00 	lds	r22, 0x00C6
     384:	40 e0       	ldi	r20, 0x00	; 0
     386:	0e 94 b0 00 	call	0x160	; 0x160 <DIO_voidSetPinValue>
     38a:	08 95       	ret

0000038c <SSD_voidSetSsdInitPinValue>:
     38c:	88 23       	and	r24, r24
     38e:	19 f0       	breq	.+6      	; 0x396 <SSD_voidSetSsdInitPinValue+0xa>
     390:	81 30       	cpi	r24, 0x01	; 1
     392:	f1 f4       	brne	.+60     	; 0x3d0 <SSD_voidSetSsdInitPinValue+0x44>
     394:	0f c0       	rjmp	.+30     	; 0x3b4 <SSD_voidSetSsdInitPinValue+0x28>
     396:	86 2f       	mov	r24, r22
     398:	90 e0       	ldi	r25, 0x00	; 0
     39a:	fc 01       	movw	r30, r24
     39c:	ee 0f       	add	r30, r30
     39e:	ff 1f       	adc	r31, r31
     3a0:	e8 0f       	add	r30, r24
     3a2:	f9 1f       	adc	r31, r25
     3a4:	ee 56       	subi	r30, 0x6E	; 110
     3a6:	ff 4f       	sbci	r31, 0xFF	; 255
     3a8:	80 81       	ld	r24, Z
     3aa:	61 81       	ldd	r22, Z+1	; 0x01
     3ac:	42 81       	ldd	r20, Z+2	; 0x02
     3ae:	0e 94 b0 00 	call	0x160	; 0x160 <DIO_voidSetPinValue>
     3b2:	08 95       	ret
     3b4:	86 2f       	mov	r24, r22
     3b6:	90 e0       	ldi	r25, 0x00	; 0
     3b8:	fc 01       	movw	r30, r24
     3ba:	ee 0f       	add	r30, r30
     3bc:	ff 1f       	adc	r31, r31
     3be:	e8 0f       	add	r30, r24
     3c0:	f9 1f       	adc	r31, r25
     3c2:	e3 55       	subi	r30, 0x53	; 83
     3c4:	ff 4f       	sbci	r31, 0xFF	; 255
     3c6:	80 81       	ld	r24, Z
     3c8:	61 81       	ldd	r22, Z+1	; 0x01
     3ca:	42 81       	ldd	r20, Z+2	; 0x02
     3cc:	0e 94 b0 00 	call	0x160	; 0x160 <DIO_voidSetPinValue>
     3d0:	08 95       	ret

000003d2 <SSD_voidSetSsdInitPinDirection>:
     3d2:	88 23       	and	r24, r24
     3d4:	19 f0       	breq	.+6      	; 0x3dc <SSD_voidSetSsdInitPinDirection+0xa>
     3d6:	81 30       	cpi	r24, 0x01	; 1
     3d8:	f1 f4       	brne	.+60     	; 0x416 <SSD_voidSetSsdInitPinDirection+0x44>
     3da:	0f c0       	rjmp	.+30     	; 0x3fa <SSD_voidSetSsdInitPinDirection+0x28>
     3dc:	86 2f       	mov	r24, r22
     3de:	90 e0       	ldi	r25, 0x00	; 0
     3e0:	fc 01       	movw	r30, r24
     3e2:	ee 0f       	add	r30, r30
     3e4:	ff 1f       	adc	r31, r31
     3e6:	e8 0f       	add	r30, r24
     3e8:	f9 1f       	adc	r31, r25
     3ea:	ee 56       	subi	r30, 0x6E	; 110
     3ec:	ff 4f       	sbci	r31, 0xFF	; 255
     3ee:	80 81       	ld	r24, Z
     3f0:	61 81       	ldd	r22, Z+1	; 0x01
     3f2:	41 e0       	ldi	r20, 0x01	; 1
     3f4:	0e 94 4b 00 	call	0x96	; 0x96 <DIO_voidSetPinDirection>
     3f8:	08 95       	ret
     3fa:	86 2f       	mov	r24, r22
     3fc:	90 e0       	ldi	r25, 0x00	; 0
     3fe:	fc 01       	movw	r30, r24
     400:	ee 0f       	add	r30, r30
     402:	ff 1f       	adc	r31, r31
     404:	e8 0f       	add	r30, r24
     406:	f9 1f       	adc	r31, r25
     408:	e3 55       	subi	r30, 0x53	; 83
     40a:	ff 4f       	sbci	r31, 0xFF	; 255
     40c:	80 81       	ld	r24, Z
     40e:	61 81       	ldd	r22, Z+1	; 0x01
     410:	41 e0       	ldi	r20, 0x01	; 1
     412:	0e 94 4b 00 	call	0x96	; 0x96 <DIO_voidSetPinDirection>
     416:	08 95       	ret

00000418 <SSD_voidSsdInitalization>:
     418:	1f 93       	push	r17
     41a:	88 23       	and	r24, r24
     41c:	19 f0       	breq	.+6      	; 0x424 <SSD_voidSsdInitalization+0xc>
     41e:	81 30       	cpi	r24, 0x01	; 1
     420:	d1 f4       	brne	.+52     	; 0x456 <SSD_voidSsdInitalization+0x3e>
     422:	0d c0       	rjmp	.+26     	; 0x43e <SSD_voidSsdInitalization+0x26>
     424:	10 e0       	ldi	r17, 0x00	; 0
     426:	80 e0       	ldi	r24, 0x00	; 0
     428:	61 2f       	mov	r22, r17
     42a:	0e 94 e9 01 	call	0x3d2	; 0x3d2 <SSD_voidSetSsdInitPinDirection>
     42e:	80 e0       	ldi	r24, 0x00	; 0
     430:	61 2f       	mov	r22, r17
     432:	0e 94 c6 01 	call	0x38c	; 0x38c <SSD_voidSetSsdInitPinValue>
     436:	1f 5f       	subi	r17, 0xFF	; 255
     438:	19 30       	cpi	r17, 0x09	; 9
     43a:	a9 f7       	brne	.-22     	; 0x426 <SSD_voidSsdInitalization+0xe>
     43c:	0c c0       	rjmp	.+24     	; 0x456 <SSD_voidSsdInitalization+0x3e>
     43e:	10 e0       	ldi	r17, 0x00	; 0
     440:	81 e0       	ldi	r24, 0x01	; 1
     442:	61 2f       	mov	r22, r17
     444:	0e 94 e9 01 	call	0x3d2	; 0x3d2 <SSD_voidSetSsdInitPinDirection>
     448:	81 e0       	ldi	r24, 0x01	; 1
     44a:	61 2f       	mov	r22, r17
     44c:	0e 94 c6 01 	call	0x38c	; 0x38c <SSD_voidSetSsdInitPinValue>
     450:	1f 5f       	subi	r17, 0xFF	; 255
     452:	19 30       	cpi	r17, 0x09	; 9
     454:	a9 f7       	brne	.-22     	; 0x440 <SSD_voidSsdInitalization+0x28>
     456:	1f 91       	pop	r17
     458:	08 95       	ret

0000045a <LED_voidLedSetValue>:
     45a:	46 2f       	mov	r20, r22
     45c:	90 e0       	ldi	r25, 0x00	; 0
     45e:	fc 01       	movw	r30, r24
     460:	ee 0f       	add	r30, r30
     462:	ff 1f       	adc	r31, r31
     464:	e8 0f       	add	r30, r24
     466:	f9 1f       	adc	r31, r25
     468:	e1 5e       	subi	r30, 0xE1	; 225
     46a:	fe 4f       	sbci	r31, 0xFE	; 254
     46c:	80 81       	ld	r24, Z
     46e:	61 81       	ldd	r22, Z+1	; 0x01
     470:	0e 94 b0 00 	call	0x160	; 0x160 <DIO_voidSetPinValue>
     474:	08 95       	ret

00000476 <LED_voidLedInitalaization>:
     476:	ef 92       	push	r14
     478:	ff 92       	push	r15
     47a:	0f 93       	push	r16
     47c:	1f 93       	push	r17
     47e:	90 e0       	ldi	r25, 0x00	; 0
     480:	8c 01       	movw	r16, r24
     482:	00 0f       	add	r16, r16
     484:	11 1f       	adc	r17, r17
     486:	08 0f       	add	r16, r24
     488:	19 1f       	adc	r17, r25
     48a:	01 5e       	subi	r16, 0xE1	; 225
     48c:	1e 4f       	sbci	r17, 0xFE	; 254
     48e:	f8 01       	movw	r30, r16
     490:	f0 80       	ld	r15, Z
     492:	e1 80       	ldd	r14, Z+1	; 0x01
     494:	8f 2d       	mov	r24, r15
     496:	6e 2d       	mov	r22, r14
     498:	41 e0       	ldi	r20, 0x01	; 1
     49a:	0e 94 4b 00 	call	0x96	; 0x96 <DIO_voidSetPinDirection>
     49e:	8f 2d       	mov	r24, r15
     4a0:	6e 2d       	mov	r22, r14
     4a2:	f8 01       	movw	r30, r16
     4a4:	42 81       	ldd	r20, Z+2	; 0x02
     4a6:	0e 94 b0 00 	call	0x160	; 0x160 <DIO_voidSetPinValue>
     4aa:	1f 91       	pop	r17
     4ac:	0f 91       	pop	r16
     4ae:	ff 90       	pop	r15
     4b0:	ef 90       	pop	r14
     4b2:	08 95       	ret

000004b4 <LED_voidLedsInitalaization>:
     4b4:	1f 93       	push	r17
     4b6:	10 e0       	ldi	r17, 0x00	; 0
     4b8:	81 2f       	mov	r24, r17
     4ba:	0e 94 3b 02 	call	0x476	; 0x476 <LED_voidLedInitalaization>
     4be:	1f 5f       	subi	r17, 0xFF	; 255
     4c0:	18 30       	cpi	r17, 0x08	; 8
     4c2:	d1 f7       	brne	.-12     	; 0x4b8 <LED_voidLedsInitalaization+0x4>
     4c4:	1f 91       	pop	r17
     4c6:	08 95       	ret

000004c8 <LCD_voidSendCommand>:
     4c8:	cf 92       	push	r12
     4ca:	df 92       	push	r13
     4cc:	ef 92       	push	r14
     4ce:	ff 92       	push	r15
     4d0:	1f 93       	push	r17
     4d2:	18 2f       	mov	r17, r24
     4d4:	80 91 cd 00 	lds	r24, 0x00CD
     4d8:	60 91 ce 00 	lds	r22, 0x00CE
     4dc:	40 e0       	ldi	r20, 0x00	; 0
     4de:	0e 94 b0 00 	call	0x160	; 0x160 <DIO_voidSetPinValue>
     4e2:	9d ec       	ldi	r25, 0xCD	; 205
     4e4:	e9 2e       	mov	r14, r25
     4e6:	90 e0       	ldi	r25, 0x00	; 0
     4e8:	f9 2e       	mov	r15, r25
     4ea:	80 91 cb 00 	lds	r24, 0x00CB
     4ee:	60 91 cc 00 	lds	r22, 0x00CC
     4f2:	40 e0       	ldi	r20, 0x00	; 0
     4f4:	0e 94 b0 00 	call	0x160	; 0x160 <DIO_voidSetPinValue>
     4f8:	8c ef       	ldi	r24, 0xFC	; 252
     4fa:	c8 2e       	mov	r12, r24
     4fc:	8f ef       	ldi	r24, 0xFF	; 255
     4fe:	d8 2e       	mov	r13, r24
     500:	ce 0c       	add	r12, r14
     502:	df 1c       	adc	r13, r15
     504:	8d ef       	ldi	r24, 0xFD	; 253
     506:	9f ef       	ldi	r25, 0xFF	; 255
     508:	e8 0e       	add	r14, r24
     50a:	f9 1e       	adc	r15, r25
     50c:	f6 01       	movw	r30, r12
     50e:	80 81       	ld	r24, Z
     510:	f7 01       	movw	r30, r14
     512:	60 81       	ld	r22, Z
     514:	41 e0       	ldi	r20, 0x01	; 1
     516:	0e 94 b0 00 	call	0x160	; 0x160 <DIO_voidSetPinValue>
     51a:	80 91 c8 00 	lds	r24, 0x00C8
     51e:	61 2f       	mov	r22, r17
     520:	0e 94 28 01 	call	0x250	; 0x250 <DIO_voidSetRegisterValue>
     524:	f6 01       	movw	r30, r12
     526:	80 81       	ld	r24, Z
     528:	f7 01       	movw	r30, r14
     52a:	60 81       	ld	r22, Z
     52c:	40 e0       	ldi	r20, 0x00	; 0
     52e:	0e 94 b0 00 	call	0x160	; 0x160 <DIO_voidSetPinValue>
     532:	80 ee       	ldi	r24, 0xE0	; 224
     534:	9e e2       	ldi	r25, 0x2E	; 46
     536:	01 97       	sbiw	r24, 0x01	; 1
     538:	f1 f7       	brne	.-4      	; 0x536 <LCD_voidSendCommand+0x6e>
     53a:	f6 01       	movw	r30, r12
     53c:	80 81       	ld	r24, Z
     53e:	f7 01       	movw	r30, r14
     540:	60 81       	ld	r22, Z
     542:	41 e0       	ldi	r20, 0x01	; 1
     544:	0e 94 b0 00 	call	0x160	; 0x160 <DIO_voidSetPinValue>
     548:	80 ef       	ldi	r24, 0xF0	; 240
     54a:	95 e5       	ldi	r25, 0x55	; 85
     54c:	01 97       	sbiw	r24, 0x01	; 1
     54e:	f1 f7       	brne	.-4      	; 0x54c <LCD_voidSendCommand+0x84>
     550:	1f 91       	pop	r17
     552:	ff 90       	pop	r15
     554:	ef 90       	pop	r14
     556:	df 90       	pop	r13
     558:	cf 90       	pop	r12
     55a:	08 95       	ret

0000055c <LCD_voidDisplayShiftRight>:
     55c:	8c e0       	ldi	r24, 0x0C	; 12
     55e:	0e 94 64 02 	call	0x4c8	; 0x4c8 <LCD_voidSendCommand>
     562:	08 95       	ret

00000564 <LCD_voidDisplayShiftLeft>:
     564:	88 e0       	ldi	r24, 0x08	; 8
     566:	0e 94 64 02 	call	0x4c8	; 0x4c8 <LCD_voidSendCommand>
     56a:	08 95       	ret

0000056c <LCD_voidGoToRowColumn>:
     56c:	98 2f       	mov	r25, r24
     56e:	86 2f       	mov	r24, r22
     570:	81 50       	subi	r24, 0x01	; 1
     572:	80 31       	cpi	r24, 0x10	; 16
     574:	48 f4       	brcc	.+18     	; 0x588 <LCD_voidGoToRowColumn+0x1c>
     576:	99 23       	and	r25, r25
     578:	19 f0       	breq	.+6      	; 0x580 <LCD_voidGoToRowColumn+0x14>
     57a:	91 30       	cpi	r25, 0x01	; 1
     57c:	29 f4       	brne	.+10     	; 0x588 <LCD_voidGoToRowColumn+0x1c>
     57e:	60 5c       	subi	r22, 0xC0	; 192
     580:	86 2f       	mov	r24, r22
     582:	80 68       	ori	r24, 0x80	; 128
     584:	0e 94 64 02 	call	0x4c8	; 0x4c8 <LCD_voidSendCommand>
     588:	08 95       	ret

0000058a <LCD_voidClearScreen>:
     58a:	81 e0       	ldi	r24, 0x01	; 1
     58c:	0e 94 64 02 	call	0x4c8	; 0x4c8 <LCD_voidSendCommand>
     590:	80 e0       	ldi	r24, 0x00	; 0
     592:	9d e7       	ldi	r25, 0x7D	; 125
     594:	01 97       	sbiw	r24, 0x01	; 1
     596:	f1 f7       	brne	.-4      	; 0x594 <LCD_voidClearScreen+0xa>
     598:	08 95       	ret

0000059a <LCD_voidDisplayCharacter>:
     59a:	cf 92       	push	r12
     59c:	df 92       	push	r13
     59e:	ef 92       	push	r14
     5a0:	ff 92       	push	r15
     5a2:	1f 93       	push	r17
     5a4:	18 2f       	mov	r17, r24
     5a6:	80 91 cd 00 	lds	r24, 0x00CD
     5aa:	60 91 ce 00 	lds	r22, 0x00CE
     5ae:	41 e0       	ldi	r20, 0x01	; 1
     5b0:	0e 94 b0 00 	call	0x160	; 0x160 <DIO_voidSetPinValue>
     5b4:	3d ec       	ldi	r19, 0xCD	; 205
     5b6:	e3 2e       	mov	r14, r19
     5b8:	30 e0       	ldi	r19, 0x00	; 0
     5ba:	f3 2e       	mov	r15, r19
     5bc:	80 91 cb 00 	lds	r24, 0x00CB
     5c0:	60 91 cc 00 	lds	r22, 0x00CC
     5c4:	40 e0       	ldi	r20, 0x00	; 0
     5c6:	0e 94 b0 00 	call	0x160	; 0x160 <DIO_voidSetPinValue>
     5ca:	2c ef       	ldi	r18, 0xFC	; 252
     5cc:	c2 2e       	mov	r12, r18
     5ce:	2f ef       	ldi	r18, 0xFF	; 255
     5d0:	d2 2e       	mov	r13, r18
     5d2:	ce 0c       	add	r12, r14
     5d4:	df 1c       	adc	r13, r15
     5d6:	8d ef       	ldi	r24, 0xFD	; 253
     5d8:	9f ef       	ldi	r25, 0xFF	; 255
     5da:	e8 0e       	add	r14, r24
     5dc:	f9 1e       	adc	r15, r25
     5de:	f6 01       	movw	r30, r12
     5e0:	80 81       	ld	r24, Z
     5e2:	f7 01       	movw	r30, r14
     5e4:	60 81       	ld	r22, Z
     5e6:	41 e0       	ldi	r20, 0x01	; 1
     5e8:	0e 94 b0 00 	call	0x160	; 0x160 <DIO_voidSetPinValue>
     5ec:	80 91 c8 00 	lds	r24, 0x00C8
     5f0:	61 2f       	mov	r22, r17
     5f2:	0e 94 28 01 	call	0x250	; 0x250 <DIO_voidSetRegisterValue>
     5f6:	f6 01       	movw	r30, r12
     5f8:	80 81       	ld	r24, Z
     5fa:	f7 01       	movw	r30, r14
     5fc:	60 81       	ld	r22, Z
     5fe:	40 e0       	ldi	r20, 0x00	; 0
     600:	0e 94 b0 00 	call	0x160	; 0x160 <DIO_voidSetPinValue>
     604:	80 e1       	ldi	r24, 0x10	; 16
     606:	97 e2       	ldi	r25, 0x27	; 39
     608:	01 97       	sbiw	r24, 0x01	; 1
     60a:	f1 f7       	brne	.-4      	; 0x608 <LCD_voidDisplayCharacter+0x6e>
     60c:	1f 91       	pop	r17
     60e:	ff 90       	pop	r15
     610:	ef 90       	pop	r14
     612:	df 90       	pop	r13
     614:	cf 90       	pop	r12
     616:	08 95       	ret

00000618 <LCD_voidDisplayInteger>:
     618:	af 92       	push	r10
     61a:	bf 92       	push	r11
     61c:	df 92       	push	r13
     61e:	ef 92       	push	r14
     620:	ff 92       	push	r15
     622:	0f 93       	push	r16
     624:	1f 93       	push	r17
     626:	df 93       	push	r29
     628:	cf 93       	push	r28
     62a:	cd b7       	in	r28, 0x3d	; 61
     62c:	de b7       	in	r29, 0x3e	; 62
     62e:	2a 97       	sbiw	r28, 0x0a	; 10
     630:	0f b6       	in	r0, 0x3f	; 63
     632:	f8 94       	cli
     634:	de bf       	out	0x3e, r29	; 62
     636:	0f be       	out	0x3f, r0	; 63
     638:	cd bf       	out	0x3d, r28	; 61
     63a:	7b 01       	movw	r14, r22
     63c:	8c 01       	movw	r16, r24
     63e:	61 15       	cp	r22, r1
     640:	71 05       	cpc	r23, r1
     642:	81 05       	cpc	r24, r1
     644:	91 05       	cpc	r25, r1
     646:	21 f4       	brne	.+8      	; 0x650 <LCD_voidDisplayInteger+0x38>
     648:	80 e3       	ldi	r24, 0x30	; 48
     64a:	0e 94 cd 02 	call	0x59a	; 0x59a <LCD_voidDisplayCharacter>
     64e:	44 c0       	rjmp	.+136    	; 0x6d8 <LCD_voidDisplayInteger+0xc0>
     650:	5e 01       	movw	r10, r28
     652:	08 94       	sec
     654:	a1 1c       	adc	r10, r1
     656:	b1 1c       	adc	r11, r1
     658:	dd 24       	eor	r13, r13
     65a:	c8 01       	movw	r24, r16
     65c:	b7 01       	movw	r22, r14
     65e:	2a e0       	ldi	r18, 0x0A	; 10
     660:	30 e0       	ldi	r19, 0x00	; 0
     662:	40 e0       	ldi	r20, 0x00	; 0
     664:	50 e0       	ldi	r21, 0x00	; 0
     666:	0e 94 ed 07 	call	0xfda	; 0xfda <__udivmodsi4>
     66a:	f5 01       	movw	r30, r10
     66c:	60 83       	st	Z, r22
     66e:	d3 94       	inc	r13
     670:	fa e0       	ldi	r31, 0x0A	; 10
     672:	df 16       	cp	r13, r31
     674:	a1 f0       	breq	.+40     	; 0x69e <LCD_voidDisplayInteger+0x86>
     676:	c8 01       	movw	r24, r16
     678:	b7 01       	movw	r22, r14
     67a:	2a e0       	ldi	r18, 0x0A	; 10
     67c:	30 e0       	ldi	r19, 0x00	; 0
     67e:	40 e0       	ldi	r20, 0x00	; 0
     680:	50 e0       	ldi	r21, 0x00	; 0
     682:	0e 94 ed 07 	call	0xfda	; 0xfda <__udivmodsi4>
     686:	c9 01       	movw	r24, r18
     688:	da 01       	movw	r26, r20
     68a:	7c 01       	movw	r14, r24
     68c:	8d 01       	movw	r16, r26
     68e:	08 94       	sec
     690:	a1 1c       	adc	r10, r1
     692:	b1 1c       	adc	r11, r1
     694:	e1 14       	cp	r14, r1
     696:	f1 04       	cpc	r15, r1
     698:	01 05       	cpc	r16, r1
     69a:	11 05       	cpc	r17, r1
     69c:	f1 f6       	brne	.-68     	; 0x65a <LCD_voidDisplayInteger+0x42>
     69e:	da 94       	dec	r13
     6a0:	8d 2d       	mov	r24, r13
     6a2:	99 27       	eor	r25, r25
     6a4:	87 fd       	sbrc	r24, 7
     6a6:	90 95       	com	r25
     6a8:	d3 94       	inc	r13
     6aa:	8e 01       	movw	r16, r28
     6ac:	0f 5f       	subi	r16, 0xFF	; 255
     6ae:	1f 4f       	sbci	r17, 0xFF	; 255
     6b0:	08 0f       	add	r16, r24
     6b2:	19 1f       	adc	r17, r25
     6b4:	40 ed       	ldi	r20, 0xD0	; 208
     6b6:	e4 2e       	mov	r14, r20
     6b8:	47 e0       	ldi	r20, 0x07	; 7
     6ba:	f4 2e       	mov	r15, r20
     6bc:	da 94       	dec	r13
     6be:	f8 01       	movw	r30, r16
     6c0:	80 81       	ld	r24, Z
     6c2:	80 5d       	subi	r24, 0xD0	; 208
     6c4:	80 83       	st	Z, r24
     6c6:	0e 94 cd 02 	call	0x59a	; 0x59a <LCD_voidDisplayCharacter>
     6ca:	c7 01       	movw	r24, r14
     6cc:	01 97       	sbiw	r24, 0x01	; 1
     6ce:	f1 f7       	brne	.-4      	; 0x6cc <LCD_voidDisplayInteger+0xb4>
     6d0:	01 50       	subi	r16, 0x01	; 1
     6d2:	10 40       	sbci	r17, 0x00	; 0
     6d4:	1d 14       	cp	r1, r13
     6d6:	94 f3       	brlt	.-28     	; 0x6bc <LCD_voidDisplayInteger+0xa4>
     6d8:	2a 96       	adiw	r28, 0x0a	; 10
     6da:	0f b6       	in	r0, 0x3f	; 63
     6dc:	f8 94       	cli
     6de:	de bf       	out	0x3e, r29	; 62
     6e0:	0f be       	out	0x3f, r0	; 63
     6e2:	cd bf       	out	0x3d, r28	; 61
     6e4:	cf 91       	pop	r28
     6e6:	df 91       	pop	r29
     6e8:	1f 91       	pop	r17
     6ea:	0f 91       	pop	r16
     6ec:	ff 90       	pop	r15
     6ee:	ef 90       	pop	r14
     6f0:	df 90       	pop	r13
     6f2:	bf 90       	pop	r11
     6f4:	af 90       	pop	r10
     6f6:	08 95       	ret

000006f8 <LCD_voidDisplayString>:
     6f8:	ef 92       	push	r14
     6fa:	ff 92       	push	r15
     6fc:	1f 93       	push	r17
     6fe:	cf 93       	push	r28
     700:	df 93       	push	r29
     702:	ec 01       	movw	r28, r24
     704:	10 e0       	ldi	r17, 0x00	; 0
     706:	50 ed       	ldi	r21, 0xD0	; 208
     708:	e5 2e       	mov	r14, r21
     70a:	57 e0       	ldi	r21, 0x07	; 7
     70c:	f5 2e       	mov	r15, r21
     70e:	06 c0       	rjmp	.+12     	; 0x71c <LCD_voidDisplayString+0x24>
     710:	0e 94 cd 02 	call	0x59a	; 0x59a <LCD_voidDisplayCharacter>
     714:	c7 01       	movw	r24, r14
     716:	01 97       	sbiw	r24, 0x01	; 1
     718:	f1 f7       	brne	.-4      	; 0x716 <LCD_voidDisplayString+0x1e>
     71a:	1f 5f       	subi	r17, 0xFF	; 255
     71c:	fe 01       	movw	r30, r28
     71e:	e1 0f       	add	r30, r17
     720:	f1 1d       	adc	r31, r1
     722:	80 81       	ld	r24, Z
     724:	88 23       	and	r24, r24
     726:	a1 f7       	brne	.-24     	; 0x710 <LCD_voidDisplayString+0x18>
     728:	df 91       	pop	r29
     72a:	cf 91       	pop	r28
     72c:	1f 91       	pop	r17
     72e:	ff 90       	pop	r15
     730:	ef 90       	pop	r14
     732:	08 95       	ret

00000734 <LCD_voidSystemInitalaization>:
     734:	ef 92       	push	r14
     736:	ff 92       	push	r15
     738:	0f 93       	push	r16
     73a:	1f 93       	push	r17
     73c:	18 2f       	mov	r17, r24
     73e:	80 91 c9 00 	lds	r24, 0x00C9
     742:	60 91 ca 00 	lds	r22, 0x00CA
     746:	41 e0       	ldi	r20, 0x01	; 1
     748:	0e 94 4b 00 	call	0x96	; 0x96 <DIO_voidSetPinDirection>
     74c:	80 91 cb 00 	lds	r24, 0x00CB
     750:	60 91 cc 00 	lds	r22, 0x00CC
     754:	41 e0       	ldi	r20, 0x01	; 1
     756:	0e 94 4b 00 	call	0x96	; 0x96 <DIO_voidSetPinDirection>
     75a:	80 91 cd 00 	lds	r24, 0x00CD
     75e:	60 91 ce 00 	lds	r22, 0x00CE
     762:	41 e0       	ldi	r20, 0x01	; 1
     764:	0e 94 4b 00 	call	0x96	; 0x96 <DIO_voidSetPinDirection>
     768:	80 91 c8 00 	lds	r24, 0x00C8
     76c:	6f ef       	ldi	r22, 0xFF	; 255
     76e:	0e 94 15 01 	call	0x22a	; 0x22a <DIO_voidSetRegisterDirection>
     772:	80 e6       	ldi	r24, 0x60	; 96
     774:	9a ee       	ldi	r25, 0xEA	; 234
     776:	01 97       	sbiw	r24, 0x01	; 1
     778:	f1 f7       	brne	.-4      	; 0x776 <LCD_voidSystemInitalaization+0x42>
     77a:	82 e0       	ldi	r24, 0x02	; 2
     77c:	0e 94 64 02 	call	0x4c8	; 0x4c8 <LCD_voidSendCommand>
     780:	60 e3       	ldi	r22, 0x30	; 48
     782:	e6 2e       	mov	r14, r22
     784:	65 e7       	ldi	r22, 0x75	; 117
     786:	f6 2e       	mov	r15, r22
     788:	c7 01       	movw	r24, r14
     78a:	01 97       	sbiw	r24, 0x01	; 1
     78c:	f1 f7       	brne	.-4      	; 0x78a <LCD_voidSystemInitalaization+0x56>
     78e:	81 2f       	mov	r24, r17
     790:	0e 94 64 02 	call	0x4c8	; 0x4c8 <LCD_voidSendCommand>
     794:	00 ed       	ldi	r16, 0xD0	; 208
     796:	17 e0       	ldi	r17, 0x07	; 7
     798:	c8 01       	movw	r24, r16
     79a:	01 97       	sbiw	r24, 0x01	; 1
     79c:	f1 f7       	brne	.-4      	; 0x79a <LCD_voidSystemInitalaization+0x66>
     79e:	8c e0       	ldi	r24, 0x0C	; 12
     7a0:	0e 94 64 02 	call	0x4c8	; 0x4c8 <LCD_voidSendCommand>
     7a4:	c8 01       	movw	r24, r16
     7a6:	01 97       	sbiw	r24, 0x01	; 1
     7a8:	f1 f7       	brne	.-4      	; 0x7a6 <LCD_voidSystemInitalaization+0x72>
     7aa:	81 e0       	ldi	r24, 0x01	; 1
     7ac:	0e 94 64 02 	call	0x4c8	; 0x4c8 <LCD_voidSendCommand>
     7b0:	c7 01       	movw	r24, r14
     7b2:	01 97       	sbiw	r24, 0x01	; 1
     7b4:	f1 f7       	brne	.-4      	; 0x7b2 <LCD_voidSystemInitalaization+0x7e>
     7b6:	86 e0       	ldi	r24, 0x06	; 6
     7b8:	0e 94 64 02 	call	0x4c8	; 0x4c8 <LCD_voidSendCommand>
     7bc:	80 ea       	ldi	r24, 0xA0	; 160
     7be:	9f e0       	ldi	r25, 0x0F	; 15
     7c0:	01 97       	sbiw	r24, 0x01	; 1
     7c2:	f1 f7       	brne	.-4      	; 0x7c0 <LCD_voidSystemInitalaization+0x8c>
     7c4:	1f 91       	pop	r17
     7c6:	0f 91       	pop	r16
     7c8:	ff 90       	pop	r15
     7ca:	ef 90       	pop	r14
     7cc:	08 95       	ret

000007ce <KEYPAD_voidGetPressedKey>:
     7ce:	4f 92       	push	r4
     7d0:	5f 92       	push	r5
     7d2:	6f 92       	push	r6
     7d4:	7f 92       	push	r7
     7d6:	8f 92       	push	r8
     7d8:	9f 92       	push	r9
     7da:	af 92       	push	r10
     7dc:	bf 92       	push	r11
     7de:	cf 92       	push	r12
     7e0:	df 92       	push	r13
     7e2:	ef 92       	push	r14
     7e4:	ff 92       	push	r15
     7e6:	0f 93       	push	r16
     7e8:	1f 93       	push	r17
     7ea:	df 93       	push	r29
     7ec:	cf 93       	push	r28
     7ee:	00 d0       	rcall	.+0      	; 0x7f0 <KEYPAD_voidGetPressedKey+0x22>
     7f0:	0f 92       	push	r0
     7f2:	cd b7       	in	r28, 0x3d	; 61
     7f4:	de b7       	in	r29, 0x3e	; 62
     7f6:	3c 01       	movw	r6, r24
     7f8:	19 82       	std	Y+1, r1	; 0x01
     7fa:	8f ef       	ldi	r24, 0xFF	; 255
     7fc:	8a 83       	std	Y+2, r24	; 0x02
     7fe:	c0 90 e0 00 	lds	r12, 0x00E0
     802:	1b 82       	std	Y+3, r1	; 0x03
     804:	40 e2       	ldi	r20, 0x20	; 32
     806:	44 2e       	mov	r4, r20
     808:	4e e4       	ldi	r20, 0x4E	; 78
     80a:	54 2e       	mov	r5, r20
     80c:	65 c0       	rjmp	.+202    	; 0x8d8 <__stack+0x79>
     80e:	ac 2c       	mov	r10, r12
     810:	bb 24       	eor	r11, r11
     812:	f5 01       	movw	r30, r10
     814:	ee 0f       	add	r30, r30
     816:	ff 1f       	adc	r31, r31
     818:	ee 0f       	add	r30, r30
     81a:	ff 1f       	adc	r31, r31
     81c:	e1 53       	subi	r30, 0x31	; 49
     81e:	ff 4f       	sbci	r31, 0xFF	; 255
     820:	80 81       	ld	r24, Z
     822:	61 81       	ldd	r22, Z+1	; 0x01
     824:	40 e0       	ldi	r20, 0x00	; 0
     826:	0e 94 b0 00 	call	0x160	; 0x160 <DIO_voidSetPinValue>
     82a:	d0 90 d0 00 	lds	r13, 0x00D0
     82e:	3f c0       	rjmp	.+126    	; 0x8ae <__stack+0x4f>
     830:	0d 2d       	mov	r16, r13
     832:	10 e0       	ldi	r17, 0x00	; 0
     834:	78 01       	movw	r14, r16
     836:	ee 0c       	add	r14, r14
     838:	ff 1c       	adc	r15, r15
     83a:	ee 0c       	add	r14, r14
     83c:	ff 1c       	adc	r15, r15
     83e:	8f ec       	ldi	r24, 0xCF	; 207
     840:	90 e0       	ldi	r25, 0x00	; 0
     842:	e8 0e       	add	r14, r24
     844:	f9 1e       	adc	r15, r25
     846:	47 01       	movw	r8, r14
     848:	08 94       	sec
     84a:	81 1c       	adc	r8, r1
     84c:	91 1c       	adc	r9, r1
     84e:	f7 01       	movw	r30, r14
     850:	80 81       	ld	r24, Z
     852:	61 81       	ldd	r22, Z+1	; 0x01
     854:	0e 94 3b 01 	call	0x276	; 0x276 <DIO_u8GetPinValue>
     858:	89 83       	std	Y+1, r24	; 0x01
     85a:	89 81       	ldd	r24, Y+1	; 0x01
     85c:	88 23       	and	r24, r24
     85e:	31 f5       	brne	.+76     	; 0x8ac <__stack+0x4d>
     860:	80 91 e0 00 	lds	r24, 0x00E0
     864:	95 01       	movw	r18, r10
     866:	28 1b       	sub	r18, r24
     868:	31 09       	sbc	r19, r1
     86a:	80 91 d0 00 	lds	r24, 0x00D0
     86e:	08 1b       	sub	r16, r24
     870:	11 09       	sbc	r17, r1
     872:	00 0f       	add	r16, r16
     874:	11 1f       	adc	r17, r17
     876:	00 0f       	add	r16, r16
     878:	11 1f       	adc	r17, r17
     87a:	02 0f       	add	r16, r18
     87c:	13 1f       	adc	r17, r19
     87e:	01 5c       	subi	r16, 0xC1	; 193
     880:	1e 4f       	sbci	r17, 0xFE	; 254
     882:	f8 01       	movw	r30, r16
     884:	80 81       	ld	r24, Z
     886:	8a 83       	std	Y+2, r24	; 0x02
     888:	84 01       	movw	r16, r8
     88a:	07 c0       	rjmp	.+14     	; 0x89a <__stack+0x3b>
     88c:	f7 01       	movw	r30, r14
     88e:	80 81       	ld	r24, Z
     890:	f8 01       	movw	r30, r16
     892:	60 81       	ld	r22, Z
     894:	0e 94 3b 01 	call	0x276	; 0x276 <DIO_u8GetPinValue>
     898:	89 83       	std	Y+1, r24	; 0x01
     89a:	89 81       	ldd	r24, Y+1	; 0x01
     89c:	88 23       	and	r24, r24
     89e:	b1 f3       	breq	.-20     	; 0x88c <__stack+0x2d>
     8a0:	c2 01       	movw	r24, r4
     8a2:	01 97       	sbiw	r24, 0x01	; 1
     8a4:	f1 f7       	brne	.-4      	; 0x8a2 <__stack+0x43>
     8a6:	f1 e0       	ldi	r31, 0x01	; 1
     8a8:	fb 83       	std	Y+3, r31	; 0x03
     8aa:	06 c0       	rjmp	.+12     	; 0x8b8 <__stack+0x59>
     8ac:	d3 94       	inc	r13
     8ae:	80 91 dc 00 	lds	r24, 0x00DC
     8b2:	8d 15       	cp	r24, r13
     8b4:	08 f0       	brcs	.+2      	; 0x8b8 <__stack+0x59>
     8b6:	bc cf       	rjmp	.-136    	; 0x830 <KEYPAD_voidGetPressedKey+0x62>
     8b8:	f5 01       	movw	r30, r10
     8ba:	ee 0f       	add	r30, r30
     8bc:	ff 1f       	adc	r31, r31
     8be:	ee 0f       	add	r30, r30
     8c0:	ff 1f       	adc	r31, r31
     8c2:	e1 53       	subi	r30, 0x31	; 49
     8c4:	ff 4f       	sbci	r31, 0xFF	; 255
     8c6:	80 81       	ld	r24, Z
     8c8:	61 81       	ldd	r22, Z+1	; 0x01
     8ca:	41 e0       	ldi	r20, 0x01	; 1
     8cc:	0e 94 b0 00 	call	0x160	; 0x160 <DIO_voidSetPinValue>
     8d0:	8b 81       	ldd	r24, Y+3	; 0x03
     8d2:	81 30       	cpi	r24, 0x01	; 1
     8d4:	31 f0       	breq	.+12     	; 0x8e2 <__stack+0x83>
     8d6:	c3 94       	inc	r12
     8d8:	80 91 ec 00 	lds	r24, 0x00EC
     8dc:	8c 15       	cp	r24, r12
     8de:	08 f0       	brcs	.+2      	; 0x8e2 <__stack+0x83>
     8e0:	96 cf       	rjmp	.-212    	; 0x80e <KEYPAD_voidGetPressedKey+0x40>
     8e2:	8a 81       	ldd	r24, Y+2	; 0x02
     8e4:	f3 01       	movw	r30, r6
     8e6:	80 83       	st	Z, r24
     8e8:	0f 90       	pop	r0
     8ea:	0f 90       	pop	r0
     8ec:	0f 90       	pop	r0
     8ee:	cf 91       	pop	r28
     8f0:	df 91       	pop	r29
     8f2:	1f 91       	pop	r17
     8f4:	0f 91       	pop	r16
     8f6:	ff 90       	pop	r15
     8f8:	ef 90       	pop	r14
     8fa:	df 90       	pop	r13
     8fc:	cf 90       	pop	r12
     8fe:	bf 90       	pop	r11
     900:	af 90       	pop	r10
     902:	9f 90       	pop	r9
     904:	8f 90       	pop	r8
     906:	7f 90       	pop	r7
     908:	6f 90       	pop	r6
     90a:	5f 90       	pop	r5
     90c:	4f 90       	pop	r4
     90e:	08 95       	ret

00000910 <KEYPAD_voidSystemInitialization>:
     910:	cf 93       	push	r28
     912:	df 93       	push	r29
     914:	cf ec       	ldi	r28, 0xCF	; 207
     916:	d0 e0       	ldi	r29, 0x00	; 0
     918:	88 81       	ld	r24, Y
     91a:	69 81       	ldd	r22, Y+1	; 0x01
     91c:	4a 81       	ldd	r20, Y+2	; 0x02
     91e:	0e 94 4b 00 	call	0x96	; 0x96 <DIO_voidSetPinDirection>
     922:	88 81       	ld	r24, Y
     924:	69 81       	ldd	r22, Y+1	; 0x01
     926:	4b 81       	ldd	r20, Y+3	; 0x03
     928:	0e 94 b0 00 	call	0x160	; 0x160 <DIO_voidSetPinValue>
     92c:	24 96       	adiw	r28, 0x04	; 4
     92e:	80 e0       	ldi	r24, 0x00	; 0
     930:	cf 3e       	cpi	r28, 0xEF	; 239
     932:	d8 07       	cpc	r29, r24
     934:	89 f7       	brne	.-30     	; 0x918 <KEYPAD_voidSystemInitialization+0x8>
     936:	df 91       	pop	r29
     938:	cf 91       	pop	r28
     93a:	08 95       	ret

0000093c <BUTTON_u8ButtonGetValue>:
     93c:	0f 93       	push	r16
     93e:	1f 93       	push	r17
     940:	90 e0       	ldi	r25, 0x00	; 0
     942:	8c 01       	movw	r16, r24
     944:	00 0f       	add	r16, r16
     946:	11 1f       	adc	r17, r17
     948:	08 0f       	add	r16, r24
     94a:	19 1f       	adc	r17, r25
     94c:	01 51       	subi	r16, 0x11	; 17
     94e:	1f 4f       	sbci	r17, 0xFF	; 255
     950:	f8 01       	movw	r30, r16
     952:	80 81       	ld	r24, Z
     954:	61 81       	ldd	r22, Z+1	; 0x01
     956:	0e 94 3b 01 	call	0x276	; 0x276 <DIO_u8GetPinValue>
     95a:	28 2f       	mov	r18, r24
     95c:	f8 01       	movw	r30, r16
     95e:	92 81       	ldd	r25, Z+2	; 0x02
     960:	91 30       	cpi	r25, 0x01	; 1
     962:	21 f4       	brne	.+8      	; 0x96c <BUTTON_u8ButtonGetValue+0x30>
     964:	80 e0       	ldi	r24, 0x00	; 0
     966:	22 23       	and	r18, r18
     968:	49 f4       	brne	.+18     	; 0x97c <BUTTON_u8ButtonGetValue+0x40>
     96a:	07 c0       	rjmp	.+14     	; 0x97a <BUTTON_u8ButtonGetValue+0x3e>
     96c:	99 23       	and	r25, r25
     96e:	11 f0       	breq	.+4      	; 0x974 <BUTTON_u8ButtonGetValue+0x38>
     970:	8f ef       	ldi	r24, 0xFF	; 255
     972:	04 c0       	rjmp	.+8      	; 0x97c <BUTTON_u8ButtonGetValue+0x40>
     974:	80 e0       	ldi	r24, 0x00	; 0
     976:	21 30       	cpi	r18, 0x01	; 1
     978:	09 f4       	brne	.+2      	; 0x97c <BUTTON_u8ButtonGetValue+0x40>
     97a:	81 e0       	ldi	r24, 0x01	; 1
     97c:	1f 91       	pop	r17
     97e:	0f 91       	pop	r16
     980:	08 95       	ret

00000982 <BUTTON_voidButtonInitalaization>:
     982:	0f 93       	push	r16
     984:	1f 93       	push	r17
     986:	90 e0       	ldi	r25, 0x00	; 0
     988:	8c 01       	movw	r16, r24
     98a:	00 0f       	add	r16, r16
     98c:	11 1f       	adc	r17, r17
     98e:	08 0f       	add	r16, r24
     990:	19 1f       	adc	r17, r25
     992:	01 51       	subi	r16, 0x11	; 17
     994:	1f 4f       	sbci	r17, 0xFF	; 255
     996:	f8 01       	movw	r30, r16
     998:	80 81       	ld	r24, Z
     99a:	61 81       	ldd	r22, Z+1	; 0x01
     99c:	40 e0       	ldi	r20, 0x00	; 0
     99e:	0e 94 4b 00 	call	0x96	; 0x96 <DIO_voidSetPinDirection>
     9a2:	f8 01       	movw	r30, r16
     9a4:	80 81       	ld	r24, Z
     9a6:	61 81       	ldd	r22, Z+1	; 0x01
     9a8:	42 81       	ldd	r20, Z+2	; 0x02
     9aa:	0e 94 b0 00 	call	0x160	; 0x160 <DIO_voidSetPinValue>
     9ae:	1f 91       	pop	r17
     9b0:	0f 91       	pop	r16
     9b2:	08 95       	ret

000009b4 <BUTTON_voidButtonsInitalaization>:
     9b4:	cf 93       	push	r28
     9b6:	df 93       	push	r29
     9b8:	cf ee       	ldi	r28, 0xEF	; 239
     9ba:	d0 e0       	ldi	r29, 0x00	; 0
     9bc:	88 81       	ld	r24, Y
     9be:	69 81       	ldd	r22, Y+1	; 0x01
     9c0:	40 e0       	ldi	r20, 0x00	; 0
     9c2:	0e 94 4b 00 	call	0x96	; 0x96 <DIO_voidSetPinDirection>
     9c6:	88 81       	ld	r24, Y
     9c8:	69 81       	ldd	r22, Y+1	; 0x01
     9ca:	4a 81       	ldd	r20, Y+2	; 0x02
     9cc:	0e 94 b0 00 	call	0x160	; 0x160 <DIO_voidSetPinValue>
     9d0:	23 96       	adiw	r28, 0x03	; 3
     9d2:	81 e0       	ldi	r24, 0x01	; 1
     9d4:	c7 30       	cpi	r28, 0x07	; 7
     9d6:	d8 07       	cpc	r29, r24
     9d8:	89 f7       	brne	.-30     	; 0x9bc <BUTTON_voidButtonsInitalaization+0x8>
     9da:	df 91       	pop	r29
     9dc:	cf 91       	pop	r28
     9de:	08 95       	ret

000009e0 <voidSystemUpdate>:
     9e0:	af 92       	push	r10
     9e2:	bf 92       	push	r11
     9e4:	cf 92       	push	r12
     9e6:	df 92       	push	r13
     9e8:	ef 92       	push	r14
     9ea:	ff 92       	push	r15
     9ec:	0f 93       	push	r16
     9ee:	1f 93       	push	r17
     9f0:	df 93       	push	r29
     9f2:	cf 93       	push	r28
     9f4:	00 d0       	rcall	.+0      	; 0x9f6 <voidSystemUpdate+0x16>
     9f6:	cd b7       	in	r28, 0x3d	; 61
     9f8:	de b7       	in	r29, 0x3e	; 62
     9fa:	19 82       	std	Y+1, r1	; 0x01
     9fc:	cc 24       	eor	r12, r12
     9fe:	dd 24       	eor	r13, r13
     a00:	00 e0       	ldi	r16, 0x00	; 0
     a02:	10 e0       	ldi	r17, 0x00	; 0
     a04:	ee 24       	eor	r14, r14
     a06:	ff 24       	eor	r15, r15
     a08:	1a 82       	std	Y+2, r1	; 0x02
     a0a:	5e 01       	movw	r10, r28
     a0c:	08 94       	sec
     a0e:	a1 1c       	adc	r10, r1
     a10:	b1 1c       	adc	r11, r1
     a12:	c5 01       	movw	r24, r10
     a14:	0e 94 e7 03 	call	0x7ce	; 0x7ce <KEYPAD_voidGetPressedKey>
     a18:	69 81       	ldd	r22, Y+1	; 0x01
     a1a:	6f 3f       	cpi	r22, 0xFF	; 255
     a1c:	d1 f3       	breq	.-12     	; 0xa12 <voidSystemUpdate+0x32>
     a1e:	6c 30       	cpi	r22, 0x0C	; 12
     a20:	29 f1       	breq	.+74     	; 0xa6c <voidSystemUpdate+0x8c>
     a22:	6d 30       	cpi	r22, 0x0D	; 13
     a24:	30 f4       	brcc	.+12     	; 0xa32 <voidSystemUpdate+0x52>
     a26:	6a 30       	cpi	r22, 0x0A	; 10
     a28:	61 f0       	breq	.+24     	; 0xa42 <voidSystemUpdate+0x62>
     a2a:	6b 30       	cpi	r22, 0x0B	; 11
     a2c:	09 f0       	breq	.+2      	; 0xa30 <voidSystemUpdate+0x50>
     a2e:	92 c0       	rjmp	.+292    	; 0xb54 <voidSystemUpdate+0x174>
     a30:	14 c0       	rjmp	.+40     	; 0xa5a <voidSystemUpdate+0x7a>
     a32:	6e 30       	cpi	r22, 0x0E	; 14
     a34:	71 f1       	breq	.+92     	; 0xa92 <voidSystemUpdate+0xb2>
     a36:	6e 30       	cpi	r22, 0x0E	; 14
     a38:	10 f1       	brcs	.+68     	; 0xa7e <voidSystemUpdate+0x9e>
     a3a:	6f 30       	cpi	r22, 0x0F	; 15
     a3c:	09 f0       	breq	.+2      	; 0xa40 <voidSystemUpdate+0x60>
     a3e:	8a c0       	rjmp	.+276    	; 0xb54 <voidSystemUpdate+0x174>
     a40:	31 c0       	rjmp	.+98     	; 0xaa4 <voidSystemUpdate+0xc4>
     a42:	dd 20       	and	r13, r13
     a44:	19 f0       	breq	.+6      	; 0xa4c <voidSystemUpdate+0x6c>
     a46:	dd 24       	eor	r13, r13
     a48:	d3 94       	inc	r13
     a4a:	e3 cf       	rjmp	.-58     	; 0xa12 <voidSystemUpdate+0x32>
     a4c:	8a e2       	ldi	r24, 0x2A	; 42
     a4e:	0e 94 cd 02 	call	0x59a	; 0x59a <LCD_voidDisplayCharacter>
     a52:	dd 24       	eor	r13, r13
     a54:	d3 94       	inc	r13
     a56:	8a e0       	ldi	r24, 0x0A	; 10
     a58:	1a c0       	rjmp	.+52     	; 0xa8e <voidSystemUpdate+0xae>
     a5a:	dd 20       	and	r13, r13
     a5c:	d1 f6       	brne	.-76     	; 0xa12 <voidSystemUpdate+0x32>
     a5e:	8f e2       	ldi	r24, 0x2F	; 47
     a60:	0e 94 cd 02 	call	0x59a	; 0x59a <LCD_voidDisplayCharacter>
     a64:	dd 24       	eor	r13, r13
     a66:	d3 94       	inc	r13
     a68:	8b e0       	ldi	r24, 0x0B	; 11
     a6a:	11 c0       	rjmp	.+34     	; 0xa8e <voidSystemUpdate+0xae>
     a6c:	dd 20       	and	r13, r13
     a6e:	89 f6       	brne	.-94     	; 0xa12 <voidSystemUpdate+0x32>
     a70:	8b e2       	ldi	r24, 0x2B	; 43
     a72:	0e 94 cd 02 	call	0x59a	; 0x59a <LCD_voidDisplayCharacter>
     a76:	dd 24       	eor	r13, r13
     a78:	d3 94       	inc	r13
     a7a:	8c e0       	ldi	r24, 0x0C	; 12
     a7c:	08 c0       	rjmp	.+16     	; 0xa8e <voidSystemUpdate+0xae>
     a7e:	dd 20       	and	r13, r13
     a80:	41 f6       	brne	.-112    	; 0xa12 <voidSystemUpdate+0x32>
     a82:	8d e2       	ldi	r24, 0x2D	; 45
     a84:	0e 94 cd 02 	call	0x59a	; 0x59a <LCD_voidDisplayCharacter>
     a88:	dd 24       	eor	r13, r13
     a8a:	d3 94       	inc	r13
     a8c:	8d e0       	ldi	r24, 0x0D	; 13
     a8e:	8a 83       	std	Y+2, r24	; 0x02
     a90:	c0 cf       	rjmp	.-128    	; 0xa12 <voidSystemUpdate+0x32>
     a92:	0e 94 c5 02 	call	0x58a	; 0x58a <LCD_voidClearScreen>
     a96:	cc 24       	eor	r12, r12
     a98:	dd 24       	eor	r13, r13
     a9a:	00 e0       	ldi	r16, 0x00	; 0
     a9c:	10 e0       	ldi	r17, 0x00	; 0
     a9e:	ee 24       	eor	r14, r14
     aa0:	ff 24       	eor	r15, r15
     aa2:	b7 cf       	rjmp	.-146    	; 0xa12 <voidSystemUpdate+0x32>
     aa4:	8a 81       	ldd	r24, Y+2	; 0x02
     aa6:	8c 30       	cpi	r24, 0x0C	; 12
     aa8:	39 f1       	breq	.+78     	; 0xaf8 <voidSystemUpdate+0x118>
     aaa:	8d 30       	cpi	r24, 0x0D	; 13
     aac:	30 f4       	brcc	.+12     	; 0xaba <voidSystemUpdate+0xda>
     aae:	8a 30       	cpi	r24, 0x0A	; 10
     ab0:	59 f0       	breq	.+22     	; 0xac8 <voidSystemUpdate+0xe8>
     ab2:	8b 30       	cpi	r24, 0x0B	; 11
     ab4:	09 f0       	breq	.+2      	; 0xab8 <voidSystemUpdate+0xd8>
     ab6:	73 c0       	rjmp	.+230    	; 0xb9e <voidSystemUpdate+0x1be>
     ab8:	10 c0       	rjmp	.+32     	; 0xada <voidSystemUpdate+0xfa>
     aba:	8a 81       	ldd	r24, Y+2	; 0x02
     abc:	8d 30       	cpi	r24, 0x0D	; 13
     abe:	f9 f0       	breq	.+62     	; 0xafe <voidSystemUpdate+0x11e>
     ac0:	8e 30       	cpi	r24, 0x0E	; 14
     ac2:	09 f0       	breq	.+2      	; 0xac6 <voidSystemUpdate+0xe6>
     ac4:	6c c0       	rjmp	.+216    	; 0xb9e <voidSystemUpdate+0x1be>
     ac6:	27 c0       	rjmp	.+78     	; 0xb16 <voidSystemUpdate+0x136>
     ac8:	0e 9d       	mul	r16, r14
     aca:	c0 01       	movw	r24, r0
     acc:	0f 9d       	mul	r16, r15
     ace:	90 0d       	add	r25, r0
     ad0:	1e 9d       	mul	r17, r14
     ad2:	90 0d       	add	r25, r0
     ad4:	11 24       	eor	r1, r1
     ad6:	7c 01       	movw	r14, r24
     ad8:	15 c0       	rjmp	.+42     	; 0xb04 <voidSystemUpdate+0x124>
     ada:	e1 14       	cp	r14, r1
     adc:	f1 04       	cpc	r15, r1
     ade:	31 f4       	brne	.+12     	; 0xaec <voidSystemUpdate+0x10c>
     ae0:	f5 e8       	ldi	r31, 0x85	; 133
     ae2:	ef 2e       	mov	r14, r31
     ae4:	f1 2c       	mov	r15, r1
     ae6:	01 2d       	mov	r16, r1
     ae8:	11 2d       	mov	r17, r1
     aea:	18 c0       	rjmp	.+48     	; 0xb1c <voidSystemUpdate+0x13c>
     aec:	c8 01       	movw	r24, r16
     aee:	b7 01       	movw	r22, r14
     af0:	0e 94 d9 07 	call	0xfb2	; 0xfb2 <__udivmodhi4>
     af4:	7b 01       	movw	r14, r22
     af6:	06 c0       	rjmp	.+12     	; 0xb04 <voidSystemUpdate+0x124>
     af8:	0e 0d       	add	r16, r14
     afa:	1f 1d       	adc	r17, r15
     afc:	02 c0       	rjmp	.+4      	; 0xb02 <voidSystemUpdate+0x122>
     afe:	0e 19       	sub	r16, r14
     b00:	1f 09       	sbc	r17, r15
     b02:	78 01       	movw	r14, r16
     b04:	00 e0       	ldi	r16, 0x00	; 0
     b06:	10 e0       	ldi	r17, 0x00	; 0
     b08:	85 e8       	ldi	r24, 0x85	; 133
     b0a:	e8 16       	cp	r14, r24
     b0c:	f1 04       	cpc	r15, r1
     b0e:	01 05       	cpc	r16, r1
     b10:	11 05       	cpc	r17, r1
     b12:	61 f4       	brne	.+24     	; 0xb2c <voidSystemUpdate+0x14c>
     b14:	03 c0       	rjmp	.+6      	; 0xb1c <voidSystemUpdate+0x13c>
     b16:	0e 94 c5 02 	call	0x58a	; 0x58a <LCD_voidClearScreen>
     b1a:	41 c0       	rjmp	.+130    	; 0xb9e <voidSystemUpdate+0x1be>
     b1c:	81 e0       	ldi	r24, 0x01	; 1
     b1e:	61 e0       	ldi	r22, 0x01	; 1
     b20:	0e 94 b6 02 	call	0x56c	; 0x56c <LCD_voidGoToRowColumn>
     b24:	80 e6       	ldi	r24, 0x60	; 96
     b26:	90 e0       	ldi	r25, 0x00	; 0
     b28:	0e 94 7c 03 	call	0x6f8	; 0x6f8 <LCD_voidDisplayString>
     b2c:	8d e3       	ldi	r24, 0x3D	; 61
     b2e:	0e 94 cd 02 	call	0x59a	; 0x59a <LCD_voidDisplayCharacter>
     b32:	c8 01       	movw	r24, r16
     b34:	b7 01       	movw	r22, r14
     b36:	0e 94 0c 03 	call	0x618	; 0x618 <LCD_voidDisplayInteger>
     b3a:	0f 90       	pop	r0
     b3c:	0f 90       	pop	r0
     b3e:	cf 91       	pop	r28
     b40:	df 91       	pop	r29
     b42:	1f 91       	pop	r17
     b44:	0f 91       	pop	r16
     b46:	ff 90       	pop	r15
     b48:	ef 90       	pop	r14
     b4a:	df 90       	pop	r13
     b4c:	cf 90       	pop	r12
     b4e:	bf 90       	pop	r11
     b50:	af 90       	pop	r10
     b52:	08 95       	ret
     b54:	26 2f       	mov	r18, r22
     b56:	30 e0       	ldi	r19, 0x00	; 0
     b58:	cc 20       	and	r12, r12
     b5a:	79 f4       	brne	.+30     	; 0xb7a <voidSystemUpdate+0x19a>
     b5c:	c8 01       	movw	r24, r16
     b5e:	e3 e0       	ldi	r30, 0x03	; 3
     b60:	88 0f       	add	r24, r24
     b62:	99 1f       	adc	r25, r25
     b64:	ea 95       	dec	r30
     b66:	e1 f7       	brne	.-8      	; 0xb60 <voidSystemUpdate+0x180>
     b68:	00 0f       	add	r16, r16
     b6a:	11 1f       	adc	r17, r17
     b6c:	08 0f       	add	r16, r24
     b6e:	19 1f       	adc	r17, r25
     b70:	02 0f       	add	r16, r18
     b72:	13 1f       	adc	r17, r19
     b74:	cc 24       	eor	r12, r12
     b76:	c3 94       	inc	r12
     b78:	0c c0       	rjmp	.+24     	; 0xb92 <voidSystemUpdate+0x1b2>
     b7a:	c7 01       	movw	r24, r14
     b7c:	53 e0       	ldi	r21, 0x03	; 3
     b7e:	88 0f       	add	r24, r24
     b80:	99 1f       	adc	r25, r25
     b82:	5a 95       	dec	r21
     b84:	e1 f7       	brne	.-8      	; 0xb7e <voidSystemUpdate+0x19e>
     b86:	ee 0c       	add	r14, r14
     b88:	ff 1c       	adc	r15, r15
     b8a:	e8 0e       	add	r14, r24
     b8c:	f9 1e       	adc	r15, r25
     b8e:	e2 0e       	add	r14, r18
     b90:	f3 1e       	adc	r15, r19
     b92:	70 e0       	ldi	r23, 0x00	; 0
     b94:	80 e0       	ldi	r24, 0x00	; 0
     b96:	90 e0       	ldi	r25, 0x00	; 0
     b98:	0e 94 0c 03 	call	0x618	; 0x618 <LCD_voidDisplayInteger>
     b9c:	3a cf       	rjmp	.-396    	; 0xa12 <voidSystemUpdate+0x32>
     b9e:	ee 24       	eor	r14, r14
     ba0:	ff 24       	eor	r15, r15
     ba2:	87 01       	movw	r16, r14
     ba4:	c3 cf       	rjmp	.-122    	; 0xb2c <voidSystemUpdate+0x14c>

00000ba6 <voidSystemInitilization>:
     ba6:	88 e3       	ldi	r24, 0x38	; 56
     ba8:	0e 94 9a 03 	call	0x734	; 0x734 <LCD_voidSystemInitalaization>
     bac:	0e 94 88 04 	call	0x910	; 0x910 <KEYPAD_voidSystemInitialization>
     bb0:	08 95       	ret

00000bb2 <Frame_voidSetFrameDirection>:
     bb2:	88 23       	and	r24, r24
     bb4:	21 f0       	breq	.+8      	; 0xbbe <Frame_voidSetFrameDirection+0xc>
     bb6:	81 30       	cpi	r24, 0x01	; 1
     bb8:	09 f0       	breq	.+2      	; 0xbbc <Frame_voidSetFrameDirection+0xa>
     bba:	fa c0       	rjmp	.+500    	; 0xdb0 <Frame_voidSetFrameDirection+0x1fe>
     bbc:	7d c0       	rjmp	.+250    	; 0xcb8 <Frame_voidSetFrameDirection+0x106>
     bbe:	81 e0       	ldi	r24, 0x01	; 1
     bc0:	0e 94 9c 01 	call	0x338	; 0x338 <SSD_voidSsdTurnOff>
     bc4:	80 e5       	ldi	r24, 0x50	; 80
     bc6:	93 ec       	ldi	r25, 0xC3	; 195
     bc8:	01 97       	sbiw	r24, 0x01	; 1
     bca:	f1 f7       	brne	.-4      	; 0xbc8 <Frame_voidSetFrameDirection+0x16>
     bcc:	80 e0       	ldi	r24, 0x00	; 0
     bce:	0e 94 b1 01 	call	0x362	; 0x362 <SSD_voidSsdTurnOn>
     bd2:	80 e0       	ldi	r24, 0x00	; 0
     bd4:	63 e0       	ldi	r22, 0x03	; 3
     bd6:	0e 94 6e 01 	call	0x2dc	; 0x2dc <SSD_voidSsdSetPin>
     bda:	8e e5       	ldi	r24, 0x5E	; 94
     bdc:	91 e0       	ldi	r25, 0x01	; 1
     bde:	28 ec       	ldi	r18, 0xC8	; 200
     be0:	30 e0       	ldi	r19, 0x00	; 0
     be2:	f9 01       	movw	r30, r18
     be4:	31 97       	sbiw	r30, 0x01	; 1
     be6:	f1 f7       	brne	.-4      	; 0xbe4 <Frame_voidSetFrameDirection+0x32>
     be8:	01 97       	sbiw	r24, 0x01	; 1
     bea:	d9 f7       	brne	.-10     	; 0xbe2 <Frame_voidSetFrameDirection+0x30>
     bec:	80 e0       	ldi	r24, 0x00	; 0
     bee:	64 e0       	ldi	r22, 0x04	; 4
     bf0:	0e 94 6e 01 	call	0x2dc	; 0x2dc <SSD_voidSsdSetPin>
     bf4:	8e e5       	ldi	r24, 0x5E	; 94
     bf6:	91 e0       	ldi	r25, 0x01	; 1
     bf8:	28 ec       	ldi	r18, 0xC8	; 200
     bfa:	30 e0       	ldi	r19, 0x00	; 0
     bfc:	f9 01       	movw	r30, r18
     bfe:	31 97       	sbiw	r30, 0x01	; 1
     c00:	f1 f7       	brne	.-4      	; 0xbfe <Frame_voidSetFrameDirection+0x4c>
     c02:	01 97       	sbiw	r24, 0x01	; 1
     c04:	d9 f7       	brne	.-10     	; 0xbfc <Frame_voidSetFrameDirection+0x4a>
     c06:	80 e0       	ldi	r24, 0x00	; 0
     c08:	65 e0       	ldi	r22, 0x05	; 5
     c0a:	0e 94 6e 01 	call	0x2dc	; 0x2dc <SSD_voidSsdSetPin>
     c0e:	8e e5       	ldi	r24, 0x5E	; 94
     c10:	91 e0       	ldi	r25, 0x01	; 1
     c12:	28 ec       	ldi	r18, 0xC8	; 200
     c14:	30 e0       	ldi	r19, 0x00	; 0
     c16:	f9 01       	movw	r30, r18
     c18:	31 97       	sbiw	r30, 0x01	; 1
     c1a:	f1 f7       	brne	.-4      	; 0xc18 <Frame_voidSetFrameDirection+0x66>
     c1c:	01 97       	sbiw	r24, 0x01	; 1
     c1e:	d9 f7       	brne	.-10     	; 0xc16 <Frame_voidSetFrameDirection+0x64>
     c20:	80 e0       	ldi	r24, 0x00	; 0
     c22:	60 e0       	ldi	r22, 0x00	; 0
     c24:	0e 94 6e 01 	call	0x2dc	; 0x2dc <SSD_voidSsdSetPin>
     c28:	8e e5       	ldi	r24, 0x5E	; 94
     c2a:	91 e0       	ldi	r25, 0x01	; 1
     c2c:	28 ec       	ldi	r18, 0xC8	; 200
     c2e:	30 e0       	ldi	r19, 0x00	; 0
     c30:	f9 01       	movw	r30, r18
     c32:	31 97       	sbiw	r30, 0x01	; 1
     c34:	f1 f7       	brne	.-4      	; 0xc32 <Frame_voidSetFrameDirection+0x80>
     c36:	01 97       	sbiw	r24, 0x01	; 1
     c38:	d9 f7       	brne	.-10     	; 0xc30 <Frame_voidSetFrameDirection+0x7e>
     c3a:	80 e0       	ldi	r24, 0x00	; 0
     c3c:	0e 94 9c 01 	call	0x338	; 0x338 <SSD_voidSsdTurnOff>
     c40:	80 e5       	ldi	r24, 0x50	; 80
     c42:	93 ec       	ldi	r25, 0xC3	; 195
     c44:	01 97       	sbiw	r24, 0x01	; 1
     c46:	f1 f7       	brne	.-4      	; 0xc44 <Frame_voidSetFrameDirection+0x92>
     c48:	81 e0       	ldi	r24, 0x01	; 1
     c4a:	0e 94 b1 01 	call	0x362	; 0x362 <SSD_voidSsdTurnOn>
     c4e:	81 e0       	ldi	r24, 0x01	; 1
     c50:	60 e0       	ldi	r22, 0x00	; 0
     c52:	0e 94 6e 01 	call	0x2dc	; 0x2dc <SSD_voidSsdSetPin>
     c56:	8e e5       	ldi	r24, 0x5E	; 94
     c58:	91 e0       	ldi	r25, 0x01	; 1
     c5a:	28 ec       	ldi	r18, 0xC8	; 200
     c5c:	30 e0       	ldi	r19, 0x00	; 0
     c5e:	f9 01       	movw	r30, r18
     c60:	31 97       	sbiw	r30, 0x01	; 1
     c62:	f1 f7       	brne	.-4      	; 0xc60 <Frame_voidSetFrameDirection+0xae>
     c64:	01 97       	sbiw	r24, 0x01	; 1
     c66:	d9 f7       	brne	.-10     	; 0xc5e <Frame_voidSetFrameDirection+0xac>
     c68:	81 e0       	ldi	r24, 0x01	; 1
     c6a:	61 e0       	ldi	r22, 0x01	; 1
     c6c:	0e 94 6e 01 	call	0x2dc	; 0x2dc <SSD_voidSsdSetPin>
     c70:	8e e5       	ldi	r24, 0x5E	; 94
     c72:	91 e0       	ldi	r25, 0x01	; 1
     c74:	28 ec       	ldi	r18, 0xC8	; 200
     c76:	30 e0       	ldi	r19, 0x00	; 0
     c78:	f9 01       	movw	r30, r18
     c7a:	31 97       	sbiw	r30, 0x01	; 1
     c7c:	f1 f7       	brne	.-4      	; 0xc7a <Frame_voidSetFrameDirection+0xc8>
     c7e:	01 97       	sbiw	r24, 0x01	; 1
     c80:	d9 f7       	brne	.-10     	; 0xc78 <Frame_voidSetFrameDirection+0xc6>
     c82:	81 e0       	ldi	r24, 0x01	; 1
     c84:	62 e0       	ldi	r22, 0x02	; 2
     c86:	0e 94 6e 01 	call	0x2dc	; 0x2dc <SSD_voidSsdSetPin>
     c8a:	8e e5       	ldi	r24, 0x5E	; 94
     c8c:	91 e0       	ldi	r25, 0x01	; 1
     c8e:	28 ec       	ldi	r18, 0xC8	; 200
     c90:	30 e0       	ldi	r19, 0x00	; 0
     c92:	f9 01       	movw	r30, r18
     c94:	31 97       	sbiw	r30, 0x01	; 1
     c96:	f1 f7       	brne	.-4      	; 0xc94 <Frame_voidSetFrameDirection+0xe2>
     c98:	01 97       	sbiw	r24, 0x01	; 1
     c9a:	d9 f7       	brne	.-10     	; 0xc92 <Frame_voidSetFrameDirection+0xe0>
     c9c:	81 e0       	ldi	r24, 0x01	; 1
     c9e:	63 e0       	ldi	r22, 0x03	; 3
     ca0:	0e 94 6e 01 	call	0x2dc	; 0x2dc <SSD_voidSsdSetPin>
     ca4:	8e e5       	ldi	r24, 0x5E	; 94
     ca6:	91 e0       	ldi	r25, 0x01	; 1
     ca8:	28 ec       	ldi	r18, 0xC8	; 200
     caa:	30 e0       	ldi	r19, 0x00	; 0
     cac:	f9 01       	movw	r30, r18
     cae:	31 97       	sbiw	r30, 0x01	; 1
     cb0:	f1 f7       	brne	.-4      	; 0xcae <Frame_voidSetFrameDirection+0xfc>
     cb2:	01 97       	sbiw	r24, 0x01	; 1
     cb4:	d9 f7       	brne	.-10     	; 0xcac <Frame_voidSetFrameDirection+0xfa>
     cb6:	08 95       	ret
     cb8:	81 e0       	ldi	r24, 0x01	; 1
     cba:	0e 94 9c 01 	call	0x338	; 0x338 <SSD_voidSsdTurnOff>
     cbe:	80 e5       	ldi	r24, 0x50	; 80
     cc0:	93 ec       	ldi	r25, 0xC3	; 195
     cc2:	01 97       	sbiw	r24, 0x01	; 1
     cc4:	f1 f7       	brne	.-4      	; 0xcc2 <Frame_voidSetFrameDirection+0x110>
     cc6:	80 e0       	ldi	r24, 0x00	; 0
     cc8:	0e 94 b1 01 	call	0x362	; 0x362 <SSD_voidSsdTurnOn>
     ccc:	80 e0       	ldi	r24, 0x00	; 0
     cce:	60 e0       	ldi	r22, 0x00	; 0
     cd0:	0e 94 6e 01 	call	0x2dc	; 0x2dc <SSD_voidSsdSetPin>
     cd4:	8e e5       	ldi	r24, 0x5E	; 94
     cd6:	91 e0       	ldi	r25, 0x01	; 1
     cd8:	28 ec       	ldi	r18, 0xC8	; 200
     cda:	30 e0       	ldi	r19, 0x00	; 0
     cdc:	f9 01       	movw	r30, r18
     cde:	31 97       	sbiw	r30, 0x01	; 1
     ce0:	f1 f7       	brne	.-4      	; 0xcde <Frame_voidSetFrameDirection+0x12c>
     ce2:	01 97       	sbiw	r24, 0x01	; 1
     ce4:	d9 f7       	brne	.-10     	; 0xcdc <Frame_voidSetFrameDirection+0x12a>
     ce6:	80 e0       	ldi	r24, 0x00	; 0
     ce8:	65 e0       	ldi	r22, 0x05	; 5
     cea:	0e 94 6e 01 	call	0x2dc	; 0x2dc <SSD_voidSsdSetPin>
     cee:	8e e5       	ldi	r24, 0x5E	; 94
     cf0:	91 e0       	ldi	r25, 0x01	; 1
     cf2:	28 ec       	ldi	r18, 0xC8	; 200
     cf4:	30 e0       	ldi	r19, 0x00	; 0
     cf6:	f9 01       	movw	r30, r18
     cf8:	31 97       	sbiw	r30, 0x01	; 1
     cfa:	f1 f7       	brne	.-4      	; 0xcf8 <Frame_voidSetFrameDirection+0x146>
     cfc:	01 97       	sbiw	r24, 0x01	; 1
     cfe:	d9 f7       	brne	.-10     	; 0xcf6 <Frame_voidSetFrameDirection+0x144>
     d00:	80 e0       	ldi	r24, 0x00	; 0
     d02:	64 e0       	ldi	r22, 0x04	; 4
     d04:	0e 94 6e 01 	call	0x2dc	; 0x2dc <SSD_voidSsdSetPin>
     d08:	8e e5       	ldi	r24, 0x5E	; 94
     d0a:	91 e0       	ldi	r25, 0x01	; 1
     d0c:	28 ec       	ldi	r18, 0xC8	; 200
     d0e:	30 e0       	ldi	r19, 0x00	; 0
     d10:	f9 01       	movw	r30, r18
     d12:	31 97       	sbiw	r30, 0x01	; 1
     d14:	f1 f7       	brne	.-4      	; 0xd12 <Frame_voidSetFrameDirection+0x160>
     d16:	01 97       	sbiw	r24, 0x01	; 1
     d18:	d9 f7       	brne	.-10     	; 0xd10 <Frame_voidSetFrameDirection+0x15e>
     d1a:	80 e0       	ldi	r24, 0x00	; 0
     d1c:	63 e0       	ldi	r22, 0x03	; 3
     d1e:	0e 94 6e 01 	call	0x2dc	; 0x2dc <SSD_voidSsdSetPin>
     d22:	8e e5       	ldi	r24, 0x5E	; 94
     d24:	91 e0       	ldi	r25, 0x01	; 1
     d26:	28 ec       	ldi	r18, 0xC8	; 200
     d28:	30 e0       	ldi	r19, 0x00	; 0
     d2a:	f9 01       	movw	r30, r18
     d2c:	31 97       	sbiw	r30, 0x01	; 1
     d2e:	f1 f7       	brne	.-4      	; 0xd2c <Frame_voidSetFrameDirection+0x17a>
     d30:	01 97       	sbiw	r24, 0x01	; 1
     d32:	d9 f7       	brne	.-10     	; 0xd2a <Frame_voidSetFrameDirection+0x178>
     d34:	80 e0       	ldi	r24, 0x00	; 0
     d36:	0e 94 9c 01 	call	0x338	; 0x338 <SSD_voidSsdTurnOff>
     d3a:	80 e5       	ldi	r24, 0x50	; 80
     d3c:	93 ec       	ldi	r25, 0xC3	; 195
     d3e:	01 97       	sbiw	r24, 0x01	; 1
     d40:	f1 f7       	brne	.-4      	; 0xd3e <Frame_voidSetFrameDirection+0x18c>
     d42:	81 e0       	ldi	r24, 0x01	; 1
     d44:	0e 94 b1 01 	call	0x362	; 0x362 <SSD_voidSsdTurnOn>
     d48:	81 e0       	ldi	r24, 0x01	; 1
     d4a:	63 e0       	ldi	r22, 0x03	; 3
     d4c:	0e 94 6e 01 	call	0x2dc	; 0x2dc <SSD_voidSsdSetPin>
     d50:	8e e5       	ldi	r24, 0x5E	; 94
     d52:	91 e0       	ldi	r25, 0x01	; 1
     d54:	28 ec       	ldi	r18, 0xC8	; 200
     d56:	30 e0       	ldi	r19, 0x00	; 0
     d58:	f9 01       	movw	r30, r18
     d5a:	31 97       	sbiw	r30, 0x01	; 1
     d5c:	f1 f7       	brne	.-4      	; 0xd5a <Frame_voidSetFrameDirection+0x1a8>
     d5e:	01 97       	sbiw	r24, 0x01	; 1
     d60:	d9 f7       	brne	.-10     	; 0xd58 <Frame_voidSetFrameDirection+0x1a6>
     d62:	81 e0       	ldi	r24, 0x01	; 1
     d64:	62 e0       	ldi	r22, 0x02	; 2
     d66:	0e 94 6e 01 	call	0x2dc	; 0x2dc <SSD_voidSsdSetPin>
     d6a:	8e e5       	ldi	r24, 0x5E	; 94
     d6c:	91 e0       	ldi	r25, 0x01	; 1
     d6e:	28 ec       	ldi	r18, 0xC8	; 200
     d70:	30 e0       	ldi	r19, 0x00	; 0
     d72:	f9 01       	movw	r30, r18
     d74:	31 97       	sbiw	r30, 0x01	; 1
     d76:	f1 f7       	brne	.-4      	; 0xd74 <Frame_voidSetFrameDirection+0x1c2>
     d78:	01 97       	sbiw	r24, 0x01	; 1
     d7a:	d9 f7       	brne	.-10     	; 0xd72 <Frame_voidSetFrameDirection+0x1c0>
     d7c:	81 e0       	ldi	r24, 0x01	; 1
     d7e:	61 e0       	ldi	r22, 0x01	; 1
     d80:	0e 94 6e 01 	call	0x2dc	; 0x2dc <SSD_voidSsdSetPin>
     d84:	8e e5       	ldi	r24, 0x5E	; 94
     d86:	91 e0       	ldi	r25, 0x01	; 1
     d88:	28 ec       	ldi	r18, 0xC8	; 200
     d8a:	30 e0       	ldi	r19, 0x00	; 0
     d8c:	f9 01       	movw	r30, r18
     d8e:	31 97       	sbiw	r30, 0x01	; 1
     d90:	f1 f7       	brne	.-4      	; 0xd8e <Frame_voidSetFrameDirection+0x1dc>
     d92:	01 97       	sbiw	r24, 0x01	; 1
     d94:	d9 f7       	brne	.-10     	; 0xd8c <Frame_voidSetFrameDirection+0x1da>
     d96:	81 e0       	ldi	r24, 0x01	; 1
     d98:	60 e0       	ldi	r22, 0x00	; 0
     d9a:	0e 94 6e 01 	call	0x2dc	; 0x2dc <SSD_voidSsdSetPin>
     d9e:	8e e5       	ldi	r24, 0x5E	; 94
     da0:	91 e0       	ldi	r25, 0x01	; 1
     da2:	28 ec       	ldi	r18, 0xC8	; 200
     da4:	30 e0       	ldi	r19, 0x00	; 0
     da6:	f9 01       	movw	r30, r18
     da8:	31 97       	sbiw	r30, 0x01	; 1
     daa:	f1 f7       	brne	.-4      	; 0xda8 <Frame_voidSetFrameDirection+0x1f6>
     dac:	01 97       	sbiw	r24, 0x01	; 1
     dae:	d9 f7       	brne	.-10     	; 0xda6 <Frame_voidSetFrameDirection+0x1f4>
     db0:	08 95       	ret

00000db2 <Frame_voidUpdate>:
     db2:	80 e0       	ldi	r24, 0x00	; 0
     db4:	0e 94 9e 04 	call	0x93c	; 0x93c <BUTTON_u8ButtonGetValue>
     db8:	81 30       	cpi	r24, 0x01	; 1
     dba:	11 f4       	brne	.+4      	; 0xdc0 <Frame_voidUpdate+0xe>
     dbc:	80 e0       	ldi	r24, 0x00	; 0
     dbe:	01 c0       	rjmp	.+2      	; 0xdc2 <Frame_voidUpdate+0x10>
     dc0:	81 e0       	ldi	r24, 0x01	; 1
     dc2:	0e 94 d9 05 	call	0xbb2	; 0xbb2 <Frame_voidSetFrameDirection>
     dc6:	08 95       	ret

00000dc8 <Frame_voidSystemInitalaization>:
     dc8:	80 e0       	ldi	r24, 0x00	; 0
     dca:	0e 94 0c 02 	call	0x418	; 0x418 <SSD_voidSsdInitalization>
     dce:	81 e0       	ldi	r24, 0x01	; 1
     dd0:	0e 94 0c 02 	call	0x418	; 0x418 <SSD_voidSsdInitalization>
     dd4:	80 e0       	ldi	r24, 0x00	; 0
     dd6:	0e 94 c1 04 	call	0x982	; 0x982 <BUTTON_voidButtonInitalaization>
     dda:	08 95       	ret

00000ddc <Counter_voidUpdate>:
     ddc:	ff 92       	push	r15
     dde:	0f 93       	push	r16
     de0:	1f 93       	push	r17
     de2:	f8 2e       	mov	r15, r24
     de4:	81 e0       	ldi	r24, 0x01	; 1
     de6:	0e 94 9c 01 	call	0x338	; 0x338 <SSD_voidSsdTurnOff>
     dea:	80 e0       	ldi	r24, 0x00	; 0
     dec:	0e 94 b1 01 	call	0x362	; 0x362 <SSD_voidSsdTurnOn>
     df0:	8f 2d       	mov	r24, r15
     df2:	6a e0       	ldi	r22, 0x0A	; 10
     df4:	0e 94 cd 07 	call	0xf9a	; 0xf9a <__udivmodqi4>
     df8:	68 2f       	mov	r22, r24
     dfa:	80 e0       	ldi	r24, 0x00	; 0
     dfc:	0e 94 85 01 	call	0x30a	; 0x30a <SSD_voidSsdSetNumber>
     e00:	00 e6       	ldi	r16, 0x60	; 96
     e02:	1a ee       	ldi	r17, 0xEA	; 234
     e04:	c8 01       	movw	r24, r16
     e06:	01 97       	sbiw	r24, 0x01	; 1
     e08:	f1 f7       	brne	.-4      	; 0xe06 <Counter_voidUpdate+0x2a>
     e0a:	80 e0       	ldi	r24, 0x00	; 0
     e0c:	0e 94 9c 01 	call	0x338	; 0x338 <SSD_voidSsdTurnOff>
     e10:	81 e0       	ldi	r24, 0x01	; 1
     e12:	0e 94 b1 01 	call	0x362	; 0x362 <SSD_voidSsdTurnOn>
     e16:	8f 2d       	mov	r24, r15
     e18:	6a e0       	ldi	r22, 0x0A	; 10
     e1a:	0e 94 cd 07 	call	0xf9a	; 0xf9a <__udivmodqi4>
     e1e:	81 e0       	ldi	r24, 0x01	; 1
     e20:	69 2f       	mov	r22, r25
     e22:	0e 94 85 01 	call	0x30a	; 0x30a <SSD_voidSsdSetNumber>
     e26:	c8 01       	movw	r24, r16
     e28:	01 97       	sbiw	r24, 0x01	; 1
     e2a:	f1 f7       	brne	.-4      	; 0xe28 <Counter_voidUpdate+0x4c>
     e2c:	1f 91       	pop	r17
     e2e:	0f 91       	pop	r16
     e30:	ff 90       	pop	r15
     e32:	08 95       	ret

00000e34 <Counter_voidSystemInitalaization>:
     e34:	80 e0       	ldi	r24, 0x00	; 0
     e36:	0e 94 0c 02 	call	0x418	; 0x418 <SSD_voidSsdInitalization>
     e3a:	81 e0       	ldi	r24, 0x01	; 1
     e3c:	0e 94 0c 02 	call	0x418	; 0x418 <SSD_voidSsdInitalization>
     e40:	08 95       	ret

00000e42 <Printing_voidSystemUpdate2>:
     e42:	bf 92       	push	r11
     e44:	cf 92       	push	r12
     e46:	df 92       	push	r13
     e48:	ef 92       	push	r14
     e4a:	ff 92       	push	r15
     e4c:	0f 93       	push	r16
     e4e:	1f 93       	push	r17
     e50:	df 93       	push	r29
     e52:	cf 93       	push	r28
     e54:	cd b7       	in	r28, 0x3d	; 61
     e56:	de b7       	in	r29, 0x3e	; 62
     e58:	28 97       	sbiw	r28, 0x08	; 8
     e5a:	0f b6       	in	r0, 0x3f	; 63
     e5c:	f8 94       	cli
     e5e:	de bf       	out	0x3e, r29	; 62
     e60:	0f be       	out	0x3f, r0	; 63
     e62:	cd bf       	out	0x3d, r28	; 61
     e64:	de 01       	movw	r26, r28
     e66:	11 96       	adiw	r26, 0x01	; 1
     e68:	e7 e7       	ldi	r30, 0x77	; 119
     e6a:	f0 e0       	ldi	r31, 0x00	; 0
     e6c:	88 e0       	ldi	r24, 0x08	; 8
     e6e:	01 90       	ld	r0, Z+
     e70:	0d 92       	st	X+, r0
     e72:	81 50       	subi	r24, 0x01	; 1
     e74:	e1 f7       	brne	.-8      	; 0xe6e <Printing_voidSystemUpdate2+0x2c>
     e76:	00 e0       	ldi	r16, 0x00	; 0
     e78:	10 e0       	ldi	r17, 0x00	; 0
     e7a:	6e 01       	movw	r12, r28
     e7c:	08 94       	sec
     e7e:	c1 1c       	adc	r12, r1
     e80:	d1 1c       	adc	r13, r1
     e82:	bb 24       	eor	r11, r11
     e84:	b3 94       	inc	r11
     e86:	88 ec       	ldi	r24, 0xC8	; 200
     e88:	e8 2e       	mov	r14, r24
     e8a:	f1 2c       	mov	r15, r1
     e8c:	80 2f       	mov	r24, r16
     e8e:	61 2f       	mov	r22, r17
     e90:	0e 94 b6 02 	call	0x56c	; 0x56c <LCD_voidGoToRowColumn>
     e94:	c6 01       	movw	r24, r12
     e96:	0e 94 7c 03 	call	0x6f8	; 0x6f8 <LCD_voidDisplayString>
     e9a:	0b 25       	eor	r16, r11
     e9c:	84 ef       	ldi	r24, 0xF4	; 244
     e9e:	91 e0       	ldi	r25, 0x01	; 1
     ea0:	f7 01       	movw	r30, r14
     ea2:	31 97       	sbiw	r30, 0x01	; 1
     ea4:	f1 f7       	brne	.-4      	; 0xea2 <Printing_voidSystemUpdate2+0x60>
     ea6:	01 97       	sbiw	r24, 0x01	; 1
     ea8:	d9 f7       	brne	.-10     	; 0xea0 <Printing_voidSystemUpdate2+0x5e>
     eaa:	0e 94 c5 02 	call	0x58a	; 0x58a <LCD_voidClearScreen>
     eae:	1f 5f       	subi	r17, 0xFF	; 255
     eb0:	1f 30       	cpi	r17, 0x0F	; 15
     eb2:	61 f7       	brne	.-40     	; 0xe8c <Printing_voidSystemUpdate2+0x4a>
     eb4:	28 96       	adiw	r28, 0x08	; 8
     eb6:	0f b6       	in	r0, 0x3f	; 63
     eb8:	f8 94       	cli
     eba:	de bf       	out	0x3e, r29	; 62
     ebc:	0f be       	out	0x3f, r0	; 63
     ebe:	cd bf       	out	0x3d, r28	; 61
     ec0:	cf 91       	pop	r28
     ec2:	df 91       	pop	r29
     ec4:	1f 91       	pop	r17
     ec6:	0f 91       	pop	r16
     ec8:	ff 90       	pop	r15
     eca:	ef 90       	pop	r14
     ecc:	df 90       	pop	r13
     ece:	cf 90       	pop	r12
     ed0:	bf 90       	pop	r11
     ed2:	08 95       	ret

00000ed4 <Printing_voidSystemUpdate1>:
     ed4:	8f 92       	push	r8
     ed6:	9f 92       	push	r9
     ed8:	af 92       	push	r10
     eda:	bf 92       	push	r11
     edc:	cf 92       	push	r12
     ede:	df 92       	push	r13
     ee0:	ef 92       	push	r14
     ee2:	ff 92       	push	r15
     ee4:	0f 93       	push	r16
     ee6:	1f 93       	push	r17
     ee8:	df 93       	push	r29
     eea:	cf 93       	push	r28
     eec:	cd b7       	in	r28, 0x3d	; 61
     eee:	de b7       	in	r29, 0x3e	; 62
     ef0:	63 97       	sbiw	r28, 0x13	; 19
     ef2:	0f b6       	in	r0, 0x3f	; 63
     ef4:	f8 94       	cli
     ef6:	de bf       	out	0x3e, r29	; 62
     ef8:	0f be       	out	0x3f, r0	; 63
     efa:	cd bf       	out	0x3d, r28	; 61
     efc:	de 01       	movw	r26, r28
     efe:	11 96       	adiw	r26, 0x01	; 1
     f00:	ef e7       	ldi	r30, 0x7F	; 127
     f02:	f0 e0       	ldi	r31, 0x00	; 0
     f04:	83 e1       	ldi	r24, 0x13	; 19
     f06:	01 90       	ld	r0, Z+
     f08:	0d 92       	st	X+, r0
     f0a:	81 50       	subi	r24, 0x01	; 1
     f0c:	e1 f7       	brne	.-8      	; 0xf06 <Printing_voidSystemUpdate1+0x32>
     f0e:	6e 01       	movw	r12, r28
     f10:	08 94       	sec
     f12:	c1 1c       	adc	r12, r1
     f14:	d1 1c       	adc	r13, r1
     f16:	86 01       	movw	r16, r12
     f18:	ff 24       	eor	r15, r15
     f1a:	ee 24       	eor	r14, r14
     f1c:	e3 94       	inc	r14
     f1e:	20 e2       	ldi	r18, 0x20	; 32
     f20:	82 2e       	mov	r8, r18
     f22:	2e e4       	ldi	r18, 0x4E	; 78
     f24:	92 2e       	mov	r9, r18
     f26:	94 e1       	ldi	r25, 0x14	; 20
     f28:	a9 2e       	mov	r10, r25
     f2a:	b1 2c       	mov	r11, r1
     f2c:	ac 0e       	add	r10, r28
     f2e:	bd 1e       	adc	r11, r29
     f30:	60 2f       	mov	r22, r16
     f32:	6c 19       	sub	r22, r12
     f34:	8f 2d       	mov	r24, r15
     f36:	0e 94 b6 02 	call	0x56c	; 0x56c <LCD_voidGoToRowColumn>
     f3a:	f8 01       	movw	r30, r16
     f3c:	81 91       	ld	r24, Z+
     f3e:	8f 01       	movw	r16, r30
     f40:	0e 94 cd 02 	call	0x59a	; 0x59a <LCD_voidDisplayCharacter>
     f44:	fe 24       	eor	r15, r14
     f46:	c4 01       	movw	r24, r8
     f48:	01 97       	sbiw	r24, 0x01	; 1
     f4a:	f1 f7       	brne	.-4      	; 0xf48 <Printing_voidSystemUpdate1+0x74>
     f4c:	0a 15       	cp	r16, r10
     f4e:	1b 05       	cpc	r17, r11
     f50:	79 f7       	brne	.-34     	; 0xf30 <Printing_voidSystemUpdate1+0x5c>
     f52:	0e 94 c5 02 	call	0x58a	; 0x58a <LCD_voidClearScreen>
     f56:	63 96       	adiw	r28, 0x13	; 19
     f58:	0f b6       	in	r0, 0x3f	; 63
     f5a:	f8 94       	cli
     f5c:	de bf       	out	0x3e, r29	; 62
     f5e:	0f be       	out	0x3f, r0	; 63
     f60:	cd bf       	out	0x3d, r28	; 61
     f62:	cf 91       	pop	r28
     f64:	df 91       	pop	r29
     f66:	1f 91       	pop	r17
     f68:	0f 91       	pop	r16
     f6a:	ff 90       	pop	r15
     f6c:	ef 90       	pop	r14
     f6e:	df 90       	pop	r13
     f70:	cf 90       	pop	r12
     f72:	bf 90       	pop	r11
     f74:	af 90       	pop	r10
     f76:	9f 90       	pop	r9
     f78:	8f 90       	pop	r8
     f7a:	08 95       	ret

00000f7c <Printing_voidSystemInitialization>:
     f7c:	88 e3       	ldi	r24, 0x38	; 56
     f7e:	0e 94 9a 03 	call	0x734	; 0x734 <LCD_voidSystemInitalaization>
     f82:	80 e0       	ldi	r24, 0x00	; 0
     f84:	0e 94 c1 04 	call	0x982	; 0x982 <BUTTON_voidButtonInitalaization>
     f88:	81 e0       	ldi	r24, 0x01	; 1
     f8a:	0e 94 c1 04 	call	0x982	; 0x982 <BUTTON_voidButtonInitalaization>
     f8e:	08 95       	ret

00000f90 <main>:
     f90:	0e 94 d3 05 	call	0xba6	; 0xba6 <voidSystemInitilization>
     f94:	0e 94 f0 04 	call	0x9e0	; 0x9e0 <voidSystemUpdate>
     f98:	fd cf       	rjmp	.-6      	; 0xf94 <main+0x4>

00000f9a <__udivmodqi4>:
     f9a:	99 1b       	sub	r25, r25
     f9c:	79 e0       	ldi	r23, 0x09	; 9
     f9e:	04 c0       	rjmp	.+8      	; 0xfa8 <__udivmodqi4_ep>

00000fa0 <__udivmodqi4_loop>:
     fa0:	99 1f       	adc	r25, r25
     fa2:	96 17       	cp	r25, r22
     fa4:	08 f0       	brcs	.+2      	; 0xfa8 <__udivmodqi4_ep>
     fa6:	96 1b       	sub	r25, r22

00000fa8 <__udivmodqi4_ep>:
     fa8:	88 1f       	adc	r24, r24
     faa:	7a 95       	dec	r23
     fac:	c9 f7       	brne	.-14     	; 0xfa0 <__udivmodqi4_loop>
     fae:	80 95       	com	r24
     fb0:	08 95       	ret

00000fb2 <__udivmodhi4>:
     fb2:	aa 1b       	sub	r26, r26
     fb4:	bb 1b       	sub	r27, r27
     fb6:	51 e1       	ldi	r21, 0x11	; 17
     fb8:	07 c0       	rjmp	.+14     	; 0xfc8 <__udivmodhi4_ep>

00000fba <__udivmodhi4_loop>:
     fba:	aa 1f       	adc	r26, r26
     fbc:	bb 1f       	adc	r27, r27
     fbe:	a6 17       	cp	r26, r22
     fc0:	b7 07       	cpc	r27, r23
     fc2:	10 f0       	brcs	.+4      	; 0xfc8 <__udivmodhi4_ep>
     fc4:	a6 1b       	sub	r26, r22
     fc6:	b7 0b       	sbc	r27, r23

00000fc8 <__udivmodhi4_ep>:
     fc8:	88 1f       	adc	r24, r24
     fca:	99 1f       	adc	r25, r25
     fcc:	5a 95       	dec	r21
     fce:	a9 f7       	brne	.-22     	; 0xfba <__udivmodhi4_loop>
     fd0:	80 95       	com	r24
     fd2:	90 95       	com	r25
     fd4:	bc 01       	movw	r22, r24
     fd6:	cd 01       	movw	r24, r26
     fd8:	08 95       	ret

00000fda <__udivmodsi4>:
     fda:	a1 e2       	ldi	r26, 0x21	; 33
     fdc:	1a 2e       	mov	r1, r26
     fde:	aa 1b       	sub	r26, r26
     fe0:	bb 1b       	sub	r27, r27
     fe2:	fd 01       	movw	r30, r26
     fe4:	0d c0       	rjmp	.+26     	; 0x1000 <__udivmodsi4_ep>

00000fe6 <__udivmodsi4_loop>:
     fe6:	aa 1f       	adc	r26, r26
     fe8:	bb 1f       	adc	r27, r27
     fea:	ee 1f       	adc	r30, r30
     fec:	ff 1f       	adc	r31, r31
     fee:	a2 17       	cp	r26, r18
     ff0:	b3 07       	cpc	r27, r19
     ff2:	e4 07       	cpc	r30, r20
     ff4:	f5 07       	cpc	r31, r21
     ff6:	20 f0       	brcs	.+8      	; 0x1000 <__udivmodsi4_ep>
     ff8:	a2 1b       	sub	r26, r18
     ffa:	b3 0b       	sbc	r27, r19
     ffc:	e4 0b       	sbc	r30, r20
     ffe:	f5 0b       	sbc	r31, r21

00001000 <__udivmodsi4_ep>:
    1000:	66 1f       	adc	r22, r22
    1002:	77 1f       	adc	r23, r23
    1004:	88 1f       	adc	r24, r24
    1006:	99 1f       	adc	r25, r25
    1008:	1a 94       	dec	r1
    100a:	69 f7       	brne	.-38     	; 0xfe6 <__udivmodsi4_loop>
    100c:	60 95       	com	r22
    100e:	70 95       	com	r23
    1010:	80 95       	com	r24
    1012:	90 95       	com	r25
    1014:	9b 01       	movw	r18, r22
    1016:	ac 01       	movw	r20, r24
    1018:	bd 01       	movw	r22, r26
    101a:	cf 01       	movw	r24, r30
    101c:	08 95       	ret

0000101e <_exit>:
    101e:	f8 94       	cli

00001020 <__stop_program>:
    1020:	ff cf       	rjmp	.-2      	; 0x1020 <__stop_program>
